

HI-TECH Software PIC LITE Macro Assembler V9.83 build 10920 
                                                                                               Thu Oct 01 00:25:46 2015

HI-TECH Software Omniscient Code Generator (Lite mode) build 10920
     1  0000                     opt subtitle "HI-TECH Software Omniscient Code Generator (Lite mode) build 10920"
     2                           
     3                           opt pagewidth 120
     4                           
     5                           	opt lm
     6                           
     7                           	processor	16F877A
     8                           clrc	macro
     9                           	bcf	3,0
    10  0000                     	endm
    11                           clrz	macro
    12                           	bcf	3,2
    13  0000                     	endm
    14                           setc	macro
    15                           	bsf	3,0
    16  0000                     	endm
    17                           setz	macro
    18                           	bsf	3,2
    19  0000                     	endm
    20                           skipc	macro
    21                           	btfss	3,0
    22  0000                     	endm
    23                           skipz	macro
    24                           	btfss	3,2
    25  0000                     	endm
    26                           skipnc	macro
    27                           	btfsc	3,0
    28  0000                     	endm
    29                           skipnz	macro
    30                           	btfsc	3,2
    31  0000                     	endm
    32  0000                     indf	equ	0
    33  0000                     indf0	equ	0
    34  0002                     pc	equ	2
    35  0002                     pcl	equ	2
    36  0003                     status	equ	3
    37  0004                     fsr	equ	4
    38  0004                     fsr0	equ	4
    39  0001                     c	equ	1
    40  0000                     z	equ	0
    41  000A                     pclath	equ	10
    42                           	FNCALL	_main,___wmul
    43                           	FNCALL	_main,___lwtoft
    44                           	FNCALL	_main,___ftdiv
    45                           	FNCALL	_main,___ftmul
    46                           	FNCALL	_main,___ftge
    47                           	FNCALL	_main,_printf
    48                           	FNCALL	_printf,_putch
    49                           	FNCALL	_printf,___ftge
    50                           	FNCALL	_printf,___ftneg
    51                           	FNCALL	_printf,___wmul
    52                           	FNCALL	_printf,___awdiv
    53                           	FNCALL	_printf,_scale
    54                           	FNCALL	_printf,___ftmul
    55                           	FNCALL	_printf,_fround
    56                           	FNCALL	_printf,___ftadd
    57                           	FNCALL	_printf,___fttol
    58                           	FNCALL	_printf,__div_to_l_
    59                           	FNCALL	_printf,__tdiv_to_l_
    60                           	FNCALL	_printf,___lltoft
    61                           	FNCALL	_printf,___ftsub
    62                           	FNCALL	_printf,___lldiv
    63                           	FNCALL	_printf,___llmod
    64                           	FNCALL	___ftsub,___ftadd
    65                           	FNCALL	_scale,___awmod
    66                           	FNCALL	_scale,___bmul
    67                           	FNCALL	_scale,___awdiv
    68                           	FNCALL	_scale,___ftmul
    69                           	FNCALL	_fround,___awmod
    70                           	FNCALL	_fround,___bmul
    71                           	FNCALL	_fround,___awdiv
    72                           	FNCALL	_fround,___ftmul
    73                           	FNCALL	___lltoft,___ftpack
    74                           	FNCALL	___lwtoft,___ftpack
    75                           	FNCALL	___ftmul,___ftpack
    76                           	FNCALL	___ftdiv,___ftpack
    77                           	FNCALL	___ftadd,___ftpack
    78                           	FNROOT	_main
    79                           	FNCALL	intlevel1,_interupt
    80                           	global	intlevel1
    81                           	FNROOT	intlevel1
    82                           	global	_dpowers
    83                           psect	strings,class=STRING,delta=2
    84                           global __pstrings
    85  1000                     __pstrings:
    86                           ;	global	stringdir,stringtab,__stringbase
    87  1000                     stringtab:
    88                           ;	String table - string pointers are 1 byte each
    89  1000                     stringcode:stringdir:
      + 1000                     stringdir:	
    90  1000  3010               movlw high(stringdir)
    91  1001  008A               movwf pclath
    92  1002  0804               movf fsr,w
    93  1003  0A84               incf fsr
    94  1004  0782               	addwf pc
    95  1005                     __stringbase:
    96  1005  3400               	retlw	0
    97                           psect	strings
    98                           	file	"C:\Program Files (x86)\HI-TECH Software\PICC\9.83\lib\doprnt.c"
    99                           	line	350
   100  1006                     _dpowers:
   101  1006  3401               	retlw	01h
   102  1007  3400               	retlw	0
   103  1008  3400               	retlw	0
   104  1009  3400               	retlw	0
   105                           
   106  100A  340A               	retlw	0Ah
   107  100B  3400               	retlw	0
   108  100C  3400               	retlw	0
   109  100D  3400               	retlw	0
   110                           
   111  100E  3464               	retlw	064h
   112  100F  3400               	retlw	0
   113  1010  3400               	retlw	0
   114  1011  3400               	retlw	0
   115                           
   116  1012  34E8               	retlw	0E8h
   117  1013  3403               	retlw	03h
   118  1014  3400               	retlw	0
   119  1015  3400               	retlw	0
   120                           
   121  1016  3410               	retlw	010h
   122  1017  3427               	retlw	027h
   123  1018  3400               	retlw	0
   124  1019  3400               	retlw	0
   125                           
   126  101A  34A0               	retlw	0A0h
   127  101B  3486               	retlw	086h
   128  101C  3401               	retlw	01h
   129  101D  3400               	retlw	0
   130                           
   131  101E  3440               	retlw	040h
   132  101F  3442               	retlw	042h
   133  1020  340F               	retlw	0Fh
   134  1021  3400               	retlw	0
   135                           
   136  1022  3480               	retlw	080h
   137  1023  3496               	retlw	096h
   138  1024  3498               	retlw	098h
   139  1025  3400               	retlw	0
   140                           
   141  1026  3400               	retlw	0
   142  1027  34E1               	retlw	0E1h
   143  1028  34F5               	retlw	0F5h
   144  1029  3405               	retlw	05h
   145                           
   146  102A  3400               	retlw	0
   147  102B  34CA               	retlw	0CAh
   148  102C  349A               	retlw	09Ah
   149  102D  343B               	retlw	03Bh
   150                           
   151                           	global	__npowers_
   152                           psect	strings
   153                           	file	"C:\Program Files (x86)\HI-TECH Software\PICC\9.83\sources\powers.c"
   154                           	line	39
   155  102E                     __npowers_:
   156  102E  3400               	retlw	0x0
   157  102F  3480               	retlw	0x80
   158  1030  343F               	retlw	0x3f
   159                           
   160  1031  34CD               	retlw	0xcd
   161  1032  34CC               	retlw	0xcc
   162  1033  343D               	retlw	0x3d
   163                           
   164  1034  34D7               	retlw	0xd7
   165  1035  3423               	retlw	0x23
   166  1036  343C               	retlw	0x3c
   167                           
   168  1037  3412               	retlw	0x12
   169  1038  3483               	retlw	0x83
   170  1039  343A               	retlw	0x3a
   171                           
   172  103A  34B7               	retlw	0xb7
   173  103B  34D1               	retlw	0xd1
   174  103C  3438               	retlw	0x38
   175                           
   176  103D  34C6               	retlw	0xc6
   177  103E  3427               	retlw	0x27
   178  103F  3437               	retlw	0x37
   179                           
   180  1040  3438               	retlw	0x38
   181  1041  3486               	retlw	0x86
   182  1042  3435               	retlw	0x35
   183                           
   184  1043  34C0               	retlw	0xc0
   185  1044  34D6               	retlw	0xd6
   186  1045  3433               	retlw	0x33
   187                           
   188  1046  34CC               	retlw	0xcc
   189  1047  342B               	retlw	0x2b
   190  1048  3432               	retlw	0x32
   191                           
   192  1049  3470               	retlw	0x70
   193  104A  3489               	retlw	0x89
   194  104B  3430               	retlw	0x30
   195                           
   196  104C  34E7               	retlw	0xe7
   197  104D  34DB               	retlw	0xdb
   198  104E  342E               	retlw	0x2e
   199                           
   200  104F  34E5               	retlw	0xe5
   201  1050  343C               	retlw	0x3c
   202  1051  341E               	retlw	0x1e
   203                           
   204  1052  3442               	retlw	0x42
   205  1053  34A2               	retlw	0xa2
   206  1054  340D               	retlw	0xd
   207                           
   208                           	global	__powers_
   209                           psect	strings
   210                           	file	"C:\Program Files (x86)\HI-TECH Software\PICC\9.83\sources\powers.c"
   211                           	line	7
   212  1055                     __powers_:
   213  1055  3400               	retlw	0x0
   214  1056  3480               	retlw	0x80
   215  1057  343F               	retlw	0x3f
   216                           
   217  1058  3400               	retlw	0x0
   218  1059  3420               	retlw	0x20
   219  105A  3441               	retlw	0x41
   220                           
   221  105B  3400               	retlw	0x0
   222  105C  34C8               	retlw	0xc8
   223  105D  3442               	retlw	0x42
   224                           
   225  105E  3400               	retlw	0x0
   226  105F  347A               	retlw	0x7a
   227  1060  3444               	retlw	0x44
   228                           
   229  1061  3440               	retlw	0x40
   230  1062  341C               	retlw	0x1c
   231  1063  3446               	retlw	0x46
   232                           
   233  1064  3450               	retlw	0x50
   234  1065  34C3               	retlw	0xc3
   235  1066  3447               	retlw	0x47
   236                           
   237  1067  3424               	retlw	0x24
   238  1068  3474               	retlw	0x74
   239  1069  3449               	retlw	0x49
   240                           
   241  106A  3497               	retlw	0x97
   242  106B  3418               	retlw	0x18
   243  106C  344B               	retlw	0x4b
   244                           
   245  106D  34BC               	retlw	0xbc
   246  106E  34BE               	retlw	0xbe
   247  106F  344C               	retlw	0x4c
   248                           
   249  1070  346B               	retlw	0x6b
   250  1071  346E               	retlw	0x6e
   251  1072  344E               	retlw	0x4e
   252                           
   253  1073  3403               	retlw	0x3
   254  1074  3415               	retlw	0x15
   255  1075  3450               	retlw	0x50
   256                           
   257  1076  3479               	retlw	0x79
   258  1077  34AD               	retlw	0xad
   259  1078  3460               	retlw	0x60
   260                           
   261  1079  34F3               	retlw	0xf3
   262  107A  3449               	retlw	0x49
   263  107B  3471               	retlw	0x71
   264                           
   265                           	global	_dpowers
   266                           	global	__npowers_
   267                           	global	__powers_
   268                           	global	_DATA
   269                           	global	_check
   270                           	global	_count
   271                           	global	_ant4
   272                           	global	_ant5
   273                           	global	_ant6
   274                           	global	_ant7
   275                           	global	_flag
   276                           	global	_flag1
   277                           	global	_bateria
   278                           	global	_luz
   279                           	global	_portaFlag
   280                           	global	_portaCount
   281                           	global	_dataBat
   282                           	global	_dataLuz
   283                           	global	_dataTemp
   284                           	global	_ADRESH
   285  001E                     _ADRESH	set	30
   286                           	global	_RCREG
   287  001A                     _RCREG	set	26
   288                           	global	_RCSTA
   289  0018                     _RCSTA	set	24
   290                           	global	_TXREG
   291  0019                     _TXREG	set	25
   292                           	global	_ADCS0
   293  00FE                     _ADCS0	set	254
   294                           	global	_ADCS1
   295  00FF                     _ADCS1	set	255
   296                           	global	_ADIF
   297  0066                     _ADIF	set	102
   298                           	global	_ADON
   299  00F8                     _ADON	set	248
   300                           	global	_CARRY
   301  0018                     _CARRY	set	24
   302                           	global	_CHS0
   303  00FB                     _CHS0	set	251
   304                           	global	_CHS1
   305  00FC                     _CHS1	set	252
   306                           	global	_CHS2
   307  00FD                     _CHS2	set	253
   308                           	global	_GIE
   309  005F                     _GIE	set	95
   310                           	global	_GO_DONE
   311  00FA                     _GO_DONE	set	250
   312                           	global	_INTE
   313  005C                     _INTE	set	92
   314                           	global	_INTF
   315  0059                     _INTF	set	89
   316                           	global	_PEIE
   317  005E                     _PEIE	set	94
   318                           	global	_RA4
   319  002C                     _RA4	set	44
   320                           	global	_RA5
   321  002D                     _RA5	set	45
   322                           	global	_RB0
   323  0030                     _RB0	set	48
   324                           	global	_RB1
   325  0031                     _RB1	set	49
   326                           	global	_RB2
   327  0032                     _RB2	set	50
   328                           	global	_RB3
   329  0033                     _RB3	set	51
   330                           	global	_RB4
   331  0034                     _RB4	set	52
   332                           	global	_RB5
   333  0035                     _RB5	set	53
   334                           	global	_RB6
   335  0036                     _RB6	set	54
   336                           	global	_RB7
   337  0037                     _RB7	set	55
   338                           	global	_RBIE
   339  005B                     _RBIE	set	91
   340                           	global	_RBIF
   341  0058                     _RBIF	set	88
   342                           	global	_RCIF
   343  0065                     _RCIF	set	101
   344                           	global	_TMR0IE
   345  005D                     _TMR0IE	set	93
   346                           	global	_TMR0IF
   347  005A                     _TMR0IF	set	90
   348                           	global	_TXIF
   349  0064                     _TXIF	set	100
   350                           	global	_ADRESL
   351  009E                     _ADRESL	set	158
   352                           	global	_SPBRG
   353  0099                     _SPBRG	set	153
   354                           	global	_TRISB
   355  0086                     _TRISB	set	134
   356                           	global	_TXSTA
   357  0098                     _TXSTA	set	152
   358                           	global	_ADCS2
   359  04FE                     _ADCS2	set	1278
   360                           	global	_ADFM
   361  04FF                     _ADFM	set	1279
   362                           	global	_ADIE
   363  0466                     _ADIE	set	1126
   364                           	global	_INTEDG
   365  040E                     _INTEDG	set	1038
   366                           	global	_PCFG0
   367  04F8                     _PCFG0	set	1272
   368                           	global	_PCFG1
   369  04F9                     _PCFG1	set	1273
   370                           	global	_PCFG2
   371  04FA                     _PCFG2	set	1274
   372                           	global	_PCFG3
   373  04FB                     _PCFG3	set	1275
   374                           	global	_PS0
   375  0408                     _PS0	set	1032
   376                           	global	_PS1
   377  0409                     _PS1	set	1033
   378                           	global	_PS2
   379  040A                     _PS2	set	1034
   380                           	global	_PSA
   381  040B                     _PSA	set	1035
   382                           	global	_T0CS
   383  040D                     _T0CS	set	1037
   384                           	global	_T0SE
   385  040C                     _T0SE	set	1036
   386                           	global	_TRISA0
   387  0428                     _TRISA0	set	1064
   388                           	global	_TRISA1
   389  0429                     _TRISA1	set	1065
   390                           	global	_TRISA4
   391  042C                     _TRISA4	set	1068
   392                           	global	_TRISA5
   393  042D                     _TRISA5	set	1069
   394                           	global	_TRISB0
   395  0430                     _TRISB0	set	1072
   396                           	global	_TRISB1
   397  0431                     _TRISB1	set	1073
   398                           	global	_TRISB2
   399  0432                     _TRISB2	set	1074
   400                           	global	_TRISB3
   401  0433                     _TRISB3	set	1075
   402                           	global	_TRISB6
   403  0436                     _TRISB6	set	1078
   404                           	global	_TRISC6
   405  043E                     _TRISC6	set	1086
   406                           	global	_TRISC7
   407  043F                     _TRISC7	set	1087
   408                           	global	_EEADR
   409  010D                     _EEADR	set	269
   410                           	global	_EEDATA
   411  010C                     _EEDATA	set	268
   412                           	global	_EECON1
   413  018C                     _EECON1	set	396
   414                           	global	_EECON2
   415  018D                     _EECON2	set	397
   416                           	global	_RD
   417  0C60                     _RD	set	3168
   418                           	global	_WR
   419  0C61                     _WR	set	3169
   420                           	global	_WREN
   421  0C62                     _WREN	set	3170
   422                           	global	_temp
   423                           psect	nvBANK1,class=BANK1,space=1
   424                           global __pnvBANK1
   425  00CF                     __pnvBANK1:
   426  00CF                     _temp:
   427  00CF                            ds      3
   428                           
   429                           psect	strings
   430                           	
   431  107C                     STR_3:	
   432  107C  340A               	retlw	10
   433  107D  3441               	retlw	65	;'A'
   434  107E  3420               	retlw	32	;' '
   435  107F  3462               	retlw	98	;'b'
   436  1080  3461               	retlw	97	;'a'
   437  1081  3474               	retlw	116	;'t'
   438  1082  3465               	retlw	101	;'e'
   439  1083  3472               	retlw	114	;'r'
   440  1084  3469               	retlw	105	;'i'
   441  1085  3461               	retlw	97	;'a'
   442  1086  3420               	retlw	32	;' '
   443  1087  3465               	retlw	101	;'e'
   444  1088  3473               	retlw	115	;'s'
   445  1089  3474               	retlw	116	;'t'
   446  108A  3461               	retlw	97	;'a'
   447  108B  3420               	retlw	32	;' '
   448  108C  3461               	retlw	97	;'a'
   449  108D  3462               	retlw	98	;'b'
   450  108E  3461               	retlw	97	;'a'
   451  108F  3469               	retlw	105	;'i'
   452  1090  3478               	retlw	120	;'x'
   453  1091  346F               	retlw	111	;'o'
   454  1092  3420               	retlw	32	;' '
   455  1093  3464               	retlw	100	;'d'
   456  1094  3461               	retlw	97	;'a'
   457  1095  3420               	retlw	32	;' '
   458  1096  346D               	retlw	109	;'m'
   459  1097  3465               	retlw	101	;'e'
   460  1098  3474               	retlw	116	;'t'
   461  1099  3461               	retlw	97	;'a'
   462  109A  3464               	retlw	100	;'d'
   463  109B  3465               	retlw	101	;'e'
   464  109C  3400               	retlw	0
   465                           psect	strings
   466                           	
   467  109D                     STR_2:	
   468  109D  340A               	retlw	10
   469  109E  3441               	retlw	65	;'A'
   470  109F  3420               	retlw	32	;' '
   471  10A0  3462               	retlw	98	;'b'
   472  10A1  3461               	retlw	97	;'a'
   473  10A2  3474               	retlw	116	;'t'
   474  10A3  3465               	retlw	101	;'e'
   475  10A4  3472               	retlw	114	;'r'
   476  10A5  3469               	retlw	105	;'i'
   477  10A6  3461               	retlw	97	;'a'
   478  10A7  3420               	retlw	32	;' '
   479  10A8  3465               	retlw	101	;'e'
   480  10A9  3473               	retlw	115	;'s'
   481  10AA  3474               	retlw	116	;'t'
   482  10AB  3461               	retlw	97	;'a'
   483  10AC  3420               	retlw	32	;' '
   484  10AD  3461               	retlw	97	;'a'
   485  10AE  3463               	retlw	99	;'c'
   486  10AF  3469               	retlw	105	;'i'
   487  10B0  346D               	retlw	109	;'m'
   488  10B1  3461               	retlw	97	;'a'
   489  10B2  3420               	retlw	32	;' '
   490  10B3  3464               	retlw	100	;'d'
   491  10B4  3461               	retlw	97	;'a'
   492  10B5  3420               	retlw	32	;' '
   493  10B6  346D               	retlw	109	;'m'
   494  10B7  3465               	retlw	101	;'e'
   495  10B8  3474               	retlw	116	;'t'
   496  10B9  3461               	retlw	97	;'a'
   497  10BA  3464               	retlw	100	;'d'
   498  10BB  3465               	retlw	101	;'e'
   499  10BC  3400               	retlw	0
   500                           psect	strings
   501                           	
   502  10BD                     STR_1:	
   503  10BD  340A               	retlw	10
   504  10BE  3441               	retlw	65	;'A'
   505  10BF  3420               	retlw	32	;' '
   506  10C0  346C               	retlw	108	;'l'
   507  10C1  3475               	retlw	117	;'u'
   508  10C2  346D               	retlw	109	;'m'
   509  10C3  3469               	retlw	105	;'i'
   510  10C4  346E               	retlw	110	;'n'
   511  10C5  346F               	retlw	111	;'o'
   512  10C6  3473               	retlw	115	;'s'
   513  10C7  3469               	retlw	105	;'i'
   514  10C8  3464               	retlw	100	;'d'
   515  10C9  3461               	retlw	97	;'a'
   516  10CA  3464               	retlw	100	;'d'
   517  10CB  3465               	retlw	101	;'e'
   518  10CC  3420               	retlw	32	;' '
   519  10CD  3465               	retlw	101	;'e'
   520  10CE  3468               	retlw	104	;'h'
   521  10CF  343A               	retlw	58	;':'
   522  10D0  3420               	retlw	32	;' '
   523  10D1  3425               	retlw	37	;'%'
   524  10D2  3466               	retlw	102	;'f'
   525  10D3  3400               	retlw	0
   526                           psect	strings
   527                           	file	"Embarcados3.as"
   528                           	line	#
   529                           psect cinit,class=CODE,delta=2
   530                           global start_initialization
   531  1EF3                     start_initialization:
   532                           
   533                           psect	bitbssCOMMON,class=COMMON,bit,space=1
   534                           global __pbitbssCOMMON
   535  03B8                     __pbitbssCOMMON:
   536  03B8                     _ant4:
   537  03B8                            ds      1
   538                           
   539  03B9                     _ant5:
   540  03B9                            ds      1
   541                           
   542  03BA                     _ant6:
   543  03BA                            ds      1
   544                           
   545  03BB                     _ant7:
   546  03BB                            ds      1
   547                           
   548  03BC                     _flag:
   549  03BC                            ds      1
   550                           
   551  03BD                     _flag1:
   552  03BD                            ds      1
   553                           
   554                           psect	bssCOMMON,class=COMMON,space=1
   555                           global __pbssCOMMON
   556  0078                     __pbssCOMMON:
   557  0078                     _DATA:
   558  0078                            ds      2
   559                           
   560  007A                     _check:
   561  007A                            ds      2
   562                           
   563  007C                     _count:
   564  007C                            ds      1
   565                           
   566                           psect	bssBANK1,class=BANK1,space=1
   567                           global __pbssBANK1
   568  00C0                     __pbssBANK1:
   569  00C0                     _bateria:
   570  00C0                            ds      3
   571                           
   572  00C3                     _luz:
   573  00C3                            ds      3
   574                           
   575  00C6                     _portaFlag:
   576  00C6                            ds      2
   577                           
   578  00C8                     _portaCount:
   579  00C8                            ds      1
   580                           
   581  00C9                     _dataBat:
   582  00C9                            ds      2
   583                           
   584  00CB                     _dataLuz:
   585  00CB                            ds      2
   586                           
   587  00CD                     _dataTemp:
   588  00CD                            ds      2
   589                           
   590                           ; Clear objects allocated to BITCOMMON
   591                           psect cinit,class=CODE,delta=2
   592  1EF3  01F7               	clrf	((__pbitbssCOMMON/8)+0)&07Fh
   593                           ; Clear objects allocated to COMMON
   594                           psect cinit,class=CODE,delta=2
   595  1EF4  01F8               	clrf	((__pbssCOMMON)+0)&07Fh
   596  1EF5  01F9               	clrf	((__pbssCOMMON)+1)&07Fh
   597  1EF6  01FA               	clrf	((__pbssCOMMON)+2)&07Fh
   598  1EF7  01FB               	clrf	((__pbssCOMMON)+3)&07Fh
   599  1EF8  01FC               	clrf	((__pbssCOMMON)+4)&07Fh
   600                           ; Clear objects allocated to BANK1
   601                           psect cinit,class=CODE,delta=2
   602  1EF9  1683               	bsf	status, 5	;RP0=1, select bank1
   603  1EFA  1303               	bcf	status, 6	;RP1=0, select bank1
   604  1EFB  01C0               	clrf	((__pbssBANK1)+0)&07Fh
   605  1EFC  01C1               	clrf	((__pbssBANK1)+1)&07Fh
   606  1EFD  01C2               	clrf	((__pbssBANK1)+2)&07Fh
   607  1EFE  01C3               	clrf	((__pbssBANK1)+3)&07Fh
   608  1EFF  01C4               	clrf	((__pbssBANK1)+4)&07Fh
   609  1F00  01C5               	clrf	((__pbssBANK1)+5)&07Fh
   610  1F01  01C6               	clrf	((__pbssBANK1)+6)&07Fh
   611  1F02  01C7               	clrf	((__pbssBANK1)+7)&07Fh
   612  1F03  01C8               	clrf	((__pbssBANK1)+8)&07Fh
   613  1F04  01C9               	clrf	((__pbssBANK1)+9)&07Fh
   614  1F05  01CA               	clrf	((__pbssBANK1)+10)&07Fh
   615  1F06  01CB               	clrf	((__pbssBANK1)+11)&07Fh
   616  1F07  01CC               	clrf	((__pbssBANK1)+12)&07Fh
   617  1F08  01CD               	clrf	((__pbssBANK1)+13)&07Fh
   618  1F09  01CE               	clrf	((__pbssBANK1)+14)&07Fh
   619                           psect cinit,class=CODE,delta=2
   620                           global end_of_initialization
   621                           
   622                           ;End of C runtime variable initialization code
   623                           
   624  1F0A                     end_of_initialization:
   625  1F0A  0183               clrf status
   626  1F0B  120A  158A  2A70   ljmp _main	;jump to C main() function
   627                           psect	cstackBANK1,class=BANK1,space=1
   628                           global __pcstackBANK1
   629  00A0                     __pcstackBANK1:
   630                           	global	?_printf
   631  00A0                     ?_printf:	; 2 bytes @ 0x0
   632  00A0                     	ds	3
   633                           	global	??_printf
   634  00A3                     ??_printf:	; 0 bytes @ 0x3
   635  00A3                     	ds	6
   636                           	global	_printf$2140
   637  00A9                     _printf$2140:	; 4 bytes @ 0x9
   638  00A9                     	ds	4
   639                           	global	printf@ap
   640  00AD                     printf@ap:	; 1 bytes @ 0xD
   641  00AD                     	ds	1
   642                           	global	printf@f
   643  00AE                     printf@f:	; 1 bytes @ 0xE
   644  00AE                     	ds	1
   645                           	global	printf@flag
   646  00AF                     printf@flag:	; 2 bytes @ 0xF
   647  00AF                     	ds	2
   648                           	global	printf@prec
   649  00B1                     printf@prec:	; 2 bytes @ 0x11
   650  00B1                     	ds	2
   651                           	global	printf@_val
   652  00B3                     printf@_val:	; 4 bytes @ 0x13
   653  00B3                     	ds	4
   654                           	global	printf@integ
   655  00B7                     printf@integ:	; 3 bytes @ 0x17
   656  00B7                     	ds	3
   657                           	global	printf@exp
   658  00BA                     printf@exp:	; 2 bytes @ 0x1A
   659  00BA                     	ds	2
   660                           	global	printf@fval
   661  00BC                     printf@fval:	; 3 bytes @ 0x1C
   662  00BC                     	ds	3
   663                           	global	printf@c
   664  00BF                     printf@c:	; 1 bytes @ 0x1F
   665  00BF                     	ds	1
   666                           psect	cstackCOMMON,class=COMMON,space=1
   667                           global __pcstackCOMMON
   668  0070                     __pcstackCOMMON:
   669                           	global	?_interupt
   670  0070                     ?_interupt:	; 0 bytes @ 0x0
   671                           	global	??_interupt
   672  0070                     ??_interupt:	; 0 bytes @ 0x0
   673                           	global	?_main
   674  0070                     ?_main:	; 0 bytes @ 0x0
   675                           	global	?_putch
   676  0070                     ?_putch:	; 0 bytes @ 0x0
   677  0070                     	ds	7
   678                           psect	cstackBANK0,class=BANK0,space=1
   679                           global __pcstackBANK0
   680  0020                     __pcstackBANK0:
   681                           	global	??_putch
   682  0020                     ??_putch:	; 0 bytes @ 0x0
   683                           	global	?___ftge
   684  0020                     ?___ftge:	; 1 bit 
   685                           	global	?___wmul
   686  0020                     ?___wmul:	; 2 bytes @ 0x0
   687                           	global	?___awmod
   688  0020                     ?___awmod:	; 2 bytes @ 0x0
   689                           	global	?___ftpack
   690  0020                     ?___ftpack:	; 3 bytes @ 0x0
   691                           	global	?___ftneg
   692  0020                     ?___ftneg:	; 3 bytes @ 0x0
   693                           	global	?__tdiv_to_l_
   694  0020                     ?__tdiv_to_l_:	; 4 bytes @ 0x0
   695                           	global	?__div_to_l_
   696  0020                     ?__div_to_l_:	; 4 bytes @ 0x0
   697                           	global	?___lldiv
   698  0020                     ?___lldiv:	; 4 bytes @ 0x0
   699                           	global	putch@byte
   700  0020                     putch@byte:	; 1 bytes @ 0x0
   701                           	global	___wmul@multiplier
   702  0020                     ___wmul@multiplier:	; 2 bytes @ 0x0
   703                           	global	___awmod@divisor
   704  0020                     ___awmod@divisor:	; 2 bytes @ 0x0
   705                           	global	___ftneg@f1
   706  0020                     ___ftneg@f1:	; 3 bytes @ 0x0
   707                           	global	___ftge@ff1
   708  0020                     ___ftge@ff1:	; 3 bytes @ 0x0
   709                           	global	__tdiv_to_l_@f1
   710  0020                     __tdiv_to_l_@f1:	; 3 bytes @ 0x0
   711                           	global	__div_to_l_@f1
   712  0020                     __div_to_l_@f1:	; 3 bytes @ 0x0
   713                           	global	___ftpack@arg
   714  0020                     ___ftpack@arg:	; 3 bytes @ 0x0
   715                           	global	___lldiv@divisor
   716  0020                     ___lldiv@divisor:	; 4 bytes @ 0x0
   717  0020                     	ds	2
   718                           	global	___wmul@multiplicand
   719  0022                     ___wmul@multiplicand:	; 2 bytes @ 0x2
   720                           	global	___awmod@dividend
   721  0022                     ___awmod@dividend:	; 2 bytes @ 0x2
   722  0022                     	ds	1
   723                           	global	??___ftneg
   724  0023                     ??___ftneg:	; 0 bytes @ 0x3
   725                           	global	___ftpack@exp
   726  0023                     ___ftpack@exp:	; 1 bytes @ 0x3
   727                           	global	___ftge@ff2
   728  0023                     ___ftge@ff2:	; 3 bytes @ 0x3
   729                           	global	__tdiv_to_l_@f2
   730  0023                     __tdiv_to_l_@f2:	; 3 bytes @ 0x3
   731                           	global	__div_to_l_@f2
   732  0023                     __div_to_l_@f2:	; 3 bytes @ 0x3
   733  0023                     	ds	1
   734                           	global	??___wmul
   735  0024                     ??___wmul:	; 0 bytes @ 0x4
   736                           	global	??___awmod
   737  0024                     ??___awmod:	; 0 bytes @ 0x4
   738                           	global	___ftpack@sign
   739  0024                     ___ftpack@sign:	; 1 bytes @ 0x4
   740                           	global	___wmul@product
   741  0024                     ___wmul@product:	; 2 bytes @ 0x4
   742                           	global	___lldiv@dividend
   743  0024                     ___lldiv@dividend:	; 4 bytes @ 0x4
   744  0024                     	ds	1
   745                           	global	??___ftpack
   746  0025                     ??___ftpack:	; 0 bytes @ 0x5
   747                           	global	___awmod@counter
   748  0025                     ___awmod@counter:	; 1 bytes @ 0x5
   749  0025                     	ds	1
   750                           	global	??__tdiv_to_l_
   751  0026                     ??__tdiv_to_l_:	; 0 bytes @ 0x6
   752                           	global	??__div_to_l_
   753  0026                     ??__div_to_l_:	; 0 bytes @ 0x6
   754                           	global	??___ftge
   755  0026                     ??___ftge:	; 0 bytes @ 0x6
   756                           	global	___awmod@sign
   757  0026                     ___awmod@sign:	; 1 bytes @ 0x6
   758  0026                     	ds	1
   759                           	global	?___awdiv
   760  0027                     ?___awdiv:	; 2 bytes @ 0x7
   761                           	global	___awdiv@divisor
   762  0027                     ___awdiv@divisor:	; 2 bytes @ 0x7
   763  0027                     	ds	1
   764                           	global	??___lldiv
   765  0028                     ??___lldiv:	; 0 bytes @ 0x8
   766                           	global	?___lwtoft
   767  0028                     ?___lwtoft:	; 3 bytes @ 0x8
   768                           	global	?___lltoft
   769  0028                     ?___lltoft:	; 3 bytes @ 0x8
   770                           	global	___lwtoft@c
   771  0028                     ___lwtoft@c:	; 2 bytes @ 0x8
   772                           	global	___lltoft@c
   773  0028                     ___lltoft@c:	; 4 bytes @ 0x8
   774  0028                     	ds	1
   775                           	global	___awdiv@dividend
   776  0029                     ___awdiv@dividend:	; 2 bytes @ 0x9
   777                           	global	___lldiv@quotient
   778  0029                     ___lldiv@quotient:	; 4 bytes @ 0x9
   779  0029                     	ds	1
   780                           	global	__tdiv_to_l_@quot
   781  002A                     __tdiv_to_l_@quot:	; 4 bytes @ 0xA
   782  002A                     	ds	1
   783                           	global	??___awdiv
   784  002B                     ??___awdiv:	; 0 bytes @ 0xB
   785                           	global	??___lwtoft
   786  002B                     ??___lwtoft:	; 0 bytes @ 0xB
   787  002B                     	ds	1
   788                           	global	??___lltoft
   789  002C                     ??___lltoft:	; 0 bytes @ 0xC
   790                           	global	?___ftdiv
   791  002C                     ?___ftdiv:	; 3 bytes @ 0xC
   792                           	global	___awdiv@counter
   793  002C                     ___awdiv@counter:	; 1 bytes @ 0xC
   794                           	global	___ftdiv@f2
   795  002C                     ___ftdiv@f2:	; 3 bytes @ 0xC
   796  002C                     	ds	1
   797                           	global	___awdiv@sign
   798  002D                     ___awdiv@sign:	; 1 bytes @ 0xD
   799                           	global	___lldiv@counter
   800  002D                     ___lldiv@counter:	; 1 bytes @ 0xD
   801                           	global	___lltoft@exp
   802  002D                     ___lltoft@exp:	; 1 bytes @ 0xD
   803  002D                     	ds	1
   804                           	global	?___llmod
   805  002E                     ?___llmod:	; 4 bytes @ 0xE
   806                           	global	__tdiv_to_l_@cntr
   807  002E                     __tdiv_to_l_@cntr:	; 1 bytes @ 0xE
   808                           	global	___awdiv@quotient
   809  002E                     ___awdiv@quotient:	; 2 bytes @ 0xE
   810                           	global	___llmod@divisor
   811  002E                     ___llmod@divisor:	; 4 bytes @ 0xE
   812                           	global	__div_to_l_@quot
   813  002E                     __div_to_l_@quot:	; 4 bytes @ 0xE
   814  002E                     	ds	1
   815                           	global	__tdiv_to_l_@exp1
   816  002F                     __tdiv_to_l_@exp1:	; 1 bytes @ 0xF
   817                           	global	___ftdiv@f1
   818  002F                     ___ftdiv@f1:	; 3 bytes @ 0xF
   819  002F                     	ds	1
   820                           	global	?___bmul
   821  0030                     ?___bmul:	; 1 bytes @ 0x10
   822                           	global	___bmul@multiplicand
   823  0030                     ___bmul@multiplicand:	; 1 bytes @ 0x10
   824  0030                     	ds	1
   825                           	global	??___bmul
   826  0031                     ??___bmul:	; 0 bytes @ 0x11
   827  0031                     	ds	1
   828                           	global	??___ftdiv
   829  0032                     ??___ftdiv:	; 0 bytes @ 0x12
   830                           	global	___bmul@product
   831  0032                     ___bmul@product:	; 1 bytes @ 0x12
   832                           	global	__div_to_l_@cntr
   833  0032                     __div_to_l_@cntr:	; 1 bytes @ 0x12
   834                           	global	___llmod@dividend
   835  0032                     ___llmod@dividend:	; 4 bytes @ 0x12
   836  0032                     	ds	1
   837                           	global	___bmul@multiplier
   838  0033                     ___bmul@multiplier:	; 1 bytes @ 0x13
   839                           	global	__div_to_l_@exp1
   840  0033                     __div_to_l_@exp1:	; 1 bytes @ 0x13
   841  0033                     	ds	1
   842                           	global	?___fttol
   843  0034                     ?___fttol:	; 4 bytes @ 0x14
   844                           	global	___fttol@f1
   845  0034                     ___fttol@f1:	; 3 bytes @ 0x14
   846  0034                     	ds	2
   847                           	global	??___llmod
   848  0036                     ??___llmod:	; 0 bytes @ 0x16
   849                           	global	___ftdiv@cntr
   850  0036                     ___ftdiv@cntr:	; 1 bytes @ 0x16
   851  0036                     	ds	1
   852                           	global	___llmod@counter
   853  0037                     ___llmod@counter:	; 1 bytes @ 0x17
   854                           	global	___ftdiv@f3
   855  0037                     ___ftdiv@f3:	; 3 bytes @ 0x17
   856  0037                     	ds	1
   857                           	global	??___fttol
   858  0038                     ??___fttol:	; 0 bytes @ 0x18
   859  0038                     	ds	2
   860                           	global	___ftdiv@exp
   861  003A                     ___ftdiv@exp:	; 1 bytes @ 0x1A
   862  003A                     	ds	1
   863                           	global	___ftdiv@sign
   864  003B                     ___ftdiv@sign:	; 1 bytes @ 0x1B
   865  003B                     	ds	1
   866                           	global	___fttol@sign1
   867  003C                     ___fttol@sign1:	; 1 bytes @ 0x1C
   868  003C                     	ds	1
   869                           	global	___fttol@lval
   870  003D                     ___fttol@lval:	; 4 bytes @ 0x1D
   871  003D                     	ds	4
   872                           	global	___fttol@exp1
   873  0041                     ___fttol@exp1:	; 1 bytes @ 0x21
   874  0041                     	ds	1
   875                           	global	?___ftmul
   876  0042                     ?___ftmul:	; 3 bytes @ 0x22
   877                           	global	___ftmul@f1
   878  0042                     ___ftmul@f1:	; 3 bytes @ 0x22
   879  0042                     	ds	3
   880                           	global	___ftmul@f2
   881  0045                     ___ftmul@f2:	; 3 bytes @ 0x25
   882  0045                     	ds	3
   883                           	global	??___ftmul
   884  0048                     ??___ftmul:	; 0 bytes @ 0x28
   885  0048                     	ds	4
   886                           	global	___ftmul@exp
   887  004C                     ___ftmul@exp:	; 1 bytes @ 0x2C
   888  004C                     	ds	1
   889                           	global	___ftmul@f3_as_product
   890  004D                     ___ftmul@f3_as_product:	; 3 bytes @ 0x2D
   891  004D                     	ds	3
   892                           	global	___ftmul@cntr
   893  0050                     ___ftmul@cntr:	; 1 bytes @ 0x30
   894  0050                     	ds	1
   895                           	global	___ftmul@sign
   896  0051                     ___ftmul@sign:	; 1 bytes @ 0x31
   897  0051                     	ds	1
   898                           	global	?_scale
   899  0052                     ?_scale:	; 3 bytes @ 0x32
   900                           	global	?___ftadd
   901  0052                     ?___ftadd:	; 3 bytes @ 0x32
   902                           	global	___ftadd@f1
   903  0052                     ___ftadd@f1:	; 3 bytes @ 0x32
   904  0052                     	ds	3
   905                           	global	??_scale
   906  0055                     ??_scale:	; 0 bytes @ 0x35
   907                           	global	___ftadd@f2
   908  0055                     ___ftadd@f2:	; 3 bytes @ 0x35
   909  0055                     	ds	2
   910                           	global	_scale$2939
   911  0057                     _scale$2939:	; 3 bytes @ 0x37
   912  0057                     	ds	1
   913                           	global	??___ftadd
   914  0058                     ??___ftadd:	; 0 bytes @ 0x38
   915  0058                     	ds	2
   916                           	global	scale@scl
   917  005A                     scale@scl:	; 1 bytes @ 0x3A
   918  005A                     	ds	2
   919                           	global	___ftadd@sign
   920  005C                     ___ftadd@sign:	; 1 bytes @ 0x3C
   921  005C                     	ds	1
   922                           	global	___ftadd@exp2
   923  005D                     ___ftadd@exp2:	; 1 bytes @ 0x3D
   924  005D                     	ds	1
   925                           	global	___ftadd@exp1
   926  005E                     ___ftadd@exp1:	; 1 bytes @ 0x3E
   927  005E                     	ds	1
   928                           	global	?_fround
   929  005F                     ?_fround:	; 3 bytes @ 0x3F
   930                           	global	?___ftsub
   931  005F                     ?___ftsub:	; 3 bytes @ 0x3F
   932                           	global	___ftsub@f2
   933  005F                     ___ftsub@f2:	; 3 bytes @ 0x3F
   934  005F                     	ds	3
   935                           	global	??_fround
   936  0062                     ??_fround:	; 0 bytes @ 0x42
   937                           	global	___ftsub@f1
   938  0062                     ___ftsub@f1:	; 3 bytes @ 0x42
   939  0062                     	ds	3
   940                           	global	??___ftsub
   941  0065                     ??___ftsub:	; 0 bytes @ 0x45
   942  0065                     	ds	3
   943                           	global	_fround$2938
   944  0068                     _fround$2938:	; 3 bytes @ 0x48
   945  0068                     	ds	3
   946                           	global	_fround$2937
   947  006B                     _fround$2937:	; 3 bytes @ 0x4B
   948  006B                     	ds	3
   949                           	global	fround@prec
   950  006E                     fround@prec:	; 1 bytes @ 0x4E
   951  006E                     	ds	1
   952                           	global	??_main
   953  006F                     ??_main:	; 0 bytes @ 0x4F
   954 ;;Data sizes: Strings 88, constant 118, data 0, bss 20, persistent 3 stack 0
   955 ;;Auto spaces:   Size  Autos    Used
   956 ;; COMMON          14      7      13
   957 ;; BANK0           80     79      79
   958 ;; BANK1           80     32      50
   959 ;; BANK3           96      0       0
   960 ;; BANK2           96      0       0
   961                           
   962 ;;
   963 ;; Pointer list with targets:
   964                           
   965 ;; ?___ftpack	float  size(1) Largest target is 2
   966 ;;		 -> dataLuz(BANK1[2]), 
   967 ;;
   968 ;; ?___lldiv	unsigned long  size(1) Largest target is 0
   969 ;;
   970 ;; ?___llmod	unsigned long  size(1) Largest target is 2
   971 ;;		 -> dataLuz(BANK1[2]), 
   972 ;;
   973 ;; ?___ftsub	float  size(1) Largest target is 0
   974 ;;
   975 ;; ?___lltoft	float  size(1) Largest target is 0
   976 ;;
   977 ;; ?__tdiv_to_l_	unsigned long  size(1) Largest target is 0
   978 ;;
   979 ;; ?__div_to_l_	unsigned long  size(1) Largest target is 0
   980 ;;
   981 ;; ?___fttol	long  size(1) Largest target is 2
   982 ;;		 -> dataLuz(BANK1[2]), 
   983 ;;
   984 ;; ?___ftadd	float  size(1) Largest target is 2
   985 ;;		 -> dataLuz(BANK1[2]), 
   986 ;;
   987 ;; ?___ftneg	float  size(1) Largest target is 2
   988 ;;		 -> dataLuz(BANK1[2]), 
   989 ;;
   990 ;; ?_scale	float  size(1) Largest target is 0
   991 ;;
   992 ;; ?___awmod	int  size(1) Largest target is 2
   993 ;;		 -> dataLuz(BANK1[2]), 
   994 ;;
   995 ;; ?___awdiv	int  size(1) Largest target is 0
   996 ;;
   997 ;; ?_fround	int  size(1) Largest target is 0
   998 ;;
   999 ;; ?___wmul	unsigned int  size(1) Largest target is 0
  1000 ;;
  1001 ;; ?___ftdiv	float  size(1) Largest target is 0
  1002 ;;
  1003 ;; ?___lwtoft	float  size(1) Largest target is 0
  1004 ;;
  1005 ;; ?___ftmul	float  size(1) Largest target is 0
  1006 ;;
  1007 ;; printf@f	PTR const unsigned char  size(1) Largest target is 33
  1008 ;;		 -> STR_3(CODE[33]), STR_2(CODE[32]), STR_1(CODE[23]), 
  1009 ;;
  1010 ;; ?_printf	int  size(1) Largest target is 2
  1011 ;;		 -> dataLuz(BANK1[2]), 
  1012 ;;
  1013 ;; printf@ap	PTR void [1] size(1) Largest target is 2
  1014 ;;		 -> ?_printf(BANK1[2]), 
  1015 ;;
  1016 ;; S2129$_cp	PTR const unsigned char  size(1) Largest target is 0
  1017 ;;
  1018 ;; _val._str._cp	PTR const unsigned char  size(1) Largest target is 0
  1019 ;;
  1020                           
  1021                           
  1022 ;;
  1023 ;; Critical Paths under _main in COMMON
  1024 ;;
  1025 ;;   None.
  1026 ;;
  1027 ;; Critical Paths under _interupt in COMMON
  1028 ;;
  1029 ;;   None.
  1030 ;;
  1031 ;; Critical Paths under _main in BANK0
  1032 ;;
  1033 ;;   _printf->_fround
  1034 ;;   ___ftsub->___ftadd
  1035 ;;   _scale->___ftmul
  1036 ;;   _fround->___ftadd
  1037 ;;   ___lltoft->___ftpack
  1038 ;;   ___lwtoft->___ftpack
  1039 ;;   ___ftmul->___fttol
  1040 ;;   ___ftdiv->___lwtoft
  1041 ;;   ___ftadd->___ftmul
  1042 ;;   ___llmod->___lldiv
  1043 ;;   ___awdiv->___awmod
  1044 ;;   ___fttol->___bmul
  1045 ;;   ___bmul->___awdiv
  1046 ;;
  1047 ;; Critical Paths under _interupt in BANK0
  1048 ;;
  1049 ;;   None.
  1050 ;;
  1051 ;; Critical Paths under _main in BANK1
  1052 ;;
  1053 ;;   _main->_printf
  1054 ;;
  1055 ;; Critical Paths under _interupt in BANK1
  1056 ;;
  1057 ;;   None.
  1058 ;;
  1059 ;; Critical Paths under _main in BANK3
  1060 ;;
  1061 ;;   None.
  1062 ;;
  1063 ;; Critical Paths under _interupt in BANK3
  1064 ;;
  1065 ;;   None.
  1066 ;;
  1067 ;; Critical Paths under _main in BANK2
  1068 ;;
  1069 ;;   None.
  1070 ;;
  1071 ;; Critical Paths under _interupt in BANK2
  1072 ;;
  1073 ;;   None.
  1074                           
  1075 ;;
  1076 ;;Main: autosize = 0, tempsize = 0, incstack = 0, save=0
  1077 ;;
  1078                           
  1079 ;;
  1080 ;;Call Graph Tables:
  1081 ;;
  1082 ;; ---------------------------------------------------------------------------------
  1083 ;; (Depth) Function   	        Calls       Base Space   Used Autos Params    Refs
  1084 ;; ---------------------------------------------------------------------------------
  1085 ;; (0) _main                                                 0     0      0   11896
  1086 ;;                             ___wmul
  1087 ;;                           ___lwtoft
  1088 ;;                            ___ftdiv
  1089 ;;                            ___ftmul
  1090 ;;                             ___ftge
  1091 ;;                             _printf
  1092 ;; ---------------------------------------------------------------------------------
  1093 ;; (1) _printf                                              38    35      3   10369
  1094 ;;                                              0 BANK1     32    29      3
  1095 ;;                              _putch
  1096 ;;                             ___ftge
  1097 ;;                            ___ftneg
  1098 ;;                             ___wmul
  1099 ;;                            ___awdiv
  1100 ;;                              _scale
  1101 ;;                            ___ftmul
  1102 ;;                             _fround
  1103 ;;                            ___ftadd
  1104 ;;                            ___fttol
  1105 ;;                         __div_to_l_
  1106 ;;                        __tdiv_to_l_
  1107 ;;                           ___lltoft
  1108 ;;                            ___ftsub
  1109 ;;                            ___lldiv
  1110 ;;                            ___llmod
  1111 ;; ---------------------------------------------------------------------------------
  1112 ;; (2) ___ftsub                                              6     0      6    1114
  1113 ;;                                             63 BANK0      6     0      6
  1114 ;;                            ___ftadd
  1115 ;;                           ___lltoft (ARG)
  1116 ;; ---------------------------------------------------------------------------------
  1117 ;; (2) _scale                                               12     9      3    1896
  1118 ;;                                             50 BANK0      9     6      3
  1119 ;;                            ___awmod
  1120 ;;                             ___bmul
  1121 ;;                            ___awdiv
  1122 ;;                            ___ftmul
  1123 ;;                            ___fttol (ARG)
  1124 ;; ---------------------------------------------------------------------------------
  1125 ;; (2) _fround                                              19    16      3    1617
  1126 ;;                                             63 BANK0     16    13      3
  1127 ;;                            ___awmod
  1128 ;;                             ___bmul
  1129 ;;                            ___awdiv
  1130 ;;                            ___ftmul
  1131 ;;                            ___ftadd (ARG)
  1132 ;; ---------------------------------------------------------------------------------
  1133 ;; (2) ___lltoft                                             6     2      4     278
  1134 ;;                                              8 BANK0      6     2      4
  1135 ;;                           ___ftpack
  1136 ;; ---------------------------------------------------------------------------------
  1137 ;; (1) ___lwtoft                                             4     1      3     231
  1138 ;;                                              8 BANK0      4     1      3
  1139 ;;                           ___ftpack
  1140 ;;                             ___wmul (ARG)
  1141 ;; ---------------------------------------------------------------------------------
  1142 ;; (3) ___ftmul                                             16    10      6     535
  1143 ;;                                             34 BANK0     16    10      6
  1144 ;;                           ___ftpack
  1145 ;;                            ___ftdiv (ARG)
  1146 ;;                           ___lwtoft (ARG)
  1147 ;;                             ___wmul (ARG)
  1148 ;;                            ___fttol (ARG)
  1149 ;;                             ___bmul (ARG)
  1150 ;;                            ___awdiv (ARG)
  1151 ;;                            ___awmod (ARG)
  1152 ;; ---------------------------------------------------------------------------------
  1153 ;; (1) ___ftdiv                                             16    10      6     489
  1154 ;;                                             12 BANK0     16    10      6
  1155 ;;                           ___ftpack
  1156 ;;                           ___lwtoft (ARG)
  1157 ;;                             ___wmul (ARG)
  1158 ;; ---------------------------------------------------------------------------------
  1159 ;; (3) ___ftadd                                             13     7      6    1049
  1160 ;;                                             50 BANK0     13     7      6
  1161 ;;                           ___ftpack
  1162 ;;                            ___awmod (ARG)
  1163 ;;                             ___bmul (ARG)
  1164 ;;                            ___awdiv (ARG)
  1165 ;;                            ___ftmul (ARG)
  1166 ;; ---------------------------------------------------------------------------------
  1167 ;; (3) ___awmod                                              7     3      4     296
  1168 ;;                                              0 BANK0      7     3      4
  1169 ;; ---------------------------------------------------------------------------------
  1170 ;; (2) ___lldiv                                             14     6      8     162
  1171 ;;                                              0 BANK0     14     6      8
  1172 ;; ---------------------------------------------------------------------------------
  1173 ;; (2) ___ftge                                              12     6      6     136
  1174 ;;                                              0 BANK0     12     6      6
  1175 ;; ---------------------------------------------------------------------------------
  1176 ;; (2) ___ftneg                                              3     0      3      65
  1177 ;;                                              0 BANK0      3     0      3
  1178 ;; ---------------------------------------------------------------------------------
  1179 ;; (2) ___llmod                                             10     2      8     159
  1180 ;;                                             14 BANK0     10     2      8
  1181 ;;                            ___lldiv (ARG)
  1182 ;; ---------------------------------------------------------------------------------
  1183 ;; (3) ___awdiv                                              9     5      4     300
  1184 ;;                                              7 BANK0      9     5      4
  1185 ;;                            ___awmod (ARG)
  1186 ;; ---------------------------------------------------------------------------------
  1187 ;; (2) ___fttol                                             14    10      4     252
  1188 ;;                                             20 BANK0     14    10      4
  1189 ;;                           ___ftpack (ARG)
  1190 ;;                            ___awmod (ARG)
  1191 ;;                             ___bmul (ARG)
  1192 ;;                            ___awdiv (ARG)
  1193 ;; ---------------------------------------------------------------------------------
  1194 ;; (4) ___ftpack                                             8     3      5     209
  1195 ;;                                              0 BANK0      8     3      5
  1196 ;; ---------------------------------------------------------------------------------
  1197 ;; (2) ___wmul                                               6     2      4     136
  1198 ;;                                              0 BANK0      6     2      4
  1199 ;; ---------------------------------------------------------------------------------
  1200 ;; (3) ___bmul                                               4     3      1      68
  1201 ;;                                             16 BANK0      4     3      1
  1202 ;;                            ___awmod (ARG)
  1203 ;;                            ___awdiv (ARG)
  1204 ;; ---------------------------------------------------------------------------------
  1205 ;; (2) __div_to_l_                                          20    14      6     446
  1206 ;;                                              0 BANK0     20    14      6
  1207 ;; ---------------------------------------------------------------------------------
  1208 ;; (2) __tdiv_to_l_                                         16    10      6     303
  1209 ;;                                              0 BANK0     16    10      6
  1210 ;; ---------------------------------------------------------------------------------
  1211 ;; (2) _putch                                                1     1      0      31
  1212 ;;                                              0 BANK0      1     1      0
  1213 ;; ---------------------------------------------------------------------------------
  1214 ;; Estimated maximum stack depth 4
  1215 ;; ---------------------------------------------------------------------------------
  1216 ;; (Depth) Function   	        Calls       Base Space   Used Autos Params    Refs
  1217 ;; ---------------------------------------------------------------------------------
  1218 ;; (5) _interupt                                             7     7      0       0
  1219 ;;                                              0 COMMON     7     7      0
  1220 ;; ---------------------------------------------------------------------------------
  1221 ;; Estimated maximum stack depth 5
  1222 ;; ---------------------------------------------------------------------------------
  1223                           
  1224 ;; Call Graph Graphs:
  1225                           
  1226 ;; _main (ROOT)
  1227 ;;   ___wmul
  1228 ;;   ___lwtoft
  1229 ;;     ___ftpack
  1230 ;;     ___wmul (ARG)
  1231 ;;   ___ftdiv
  1232 ;;     ___ftpack
  1233 ;;     ___lwtoft (ARG)
  1234 ;;       ___ftpack
  1235 ;;       ___wmul (ARG)
  1236 ;;     ___wmul (ARG)
  1237 ;;   ___ftmul
  1238 ;;     ___ftpack
  1239 ;;     ___ftdiv (ARG)
  1240 ;;       ___ftpack
  1241 ;;       ___lwtoft (ARG)
  1242 ;;         ___ftpack
  1243 ;;         ___wmul (ARG)
  1244 ;;       ___wmul (ARG)
  1245 ;;     ___lwtoft (ARG)
  1246 ;;       ___ftpack
  1247 ;;       ___wmul (ARG)
  1248 ;;     ___wmul (ARG)
  1249 ;;     ___fttol (ARG)
  1250 ;;       ___ftpack (ARG)
  1251 ;;       ___awmod (ARG)
  1252 ;;       ___bmul (ARG)
  1253 ;;         ___awmod (ARG)
  1254 ;;         ___awdiv (ARG)
  1255 ;;           ___awmod (ARG)
  1256 ;;       ___awdiv (ARG)
  1257 ;;         ___awmod (ARG)
  1258 ;;     ___bmul (ARG)
  1259 ;;       ___awmod (ARG)
  1260 ;;       ___awdiv (ARG)
  1261 ;;         ___awmod (ARG)
  1262 ;;     ___awdiv (ARG)
  1263 ;;       ___awmod (ARG)
  1264 ;;     ___awmod (ARG)
  1265 ;;   ___ftge
  1266 ;;   _printf
  1267 ;;     _putch
  1268 ;;     ___ftge
  1269 ;;     ___ftneg
  1270 ;;     ___wmul
  1271 ;;     ___awdiv
  1272 ;;       ___awmod (ARG)
  1273 ;;     _scale
  1274 ;;       ___awmod
  1275 ;;       ___bmul
  1276 ;;         ___awmod (ARG)
  1277 ;;         ___awdiv (ARG)
  1278 ;;           ___awmod (ARG)
  1279 ;;       ___awdiv
  1280 ;;         ___awmod (ARG)
  1281 ;;       ___ftmul
  1282 ;;         ___ftpack
  1283 ;;         ___ftdiv (ARG)
  1284 ;;           ___ftpack
  1285 ;;           ___lwtoft (ARG)
  1286 ;;             ___ftpack
  1287 ;;             ___wmul (ARG)
  1288 ;;           ___wmul (ARG)
  1289 ;;         ___lwtoft (ARG)
  1290 ;;           ___ftpack
  1291 ;;           ___wmul (ARG)
  1292 ;;         ___wmul (ARG)
  1293 ;;         ___fttol (ARG)
  1294 ;;           ___ftpack (ARG)
  1295 ;;           ___awmod (ARG)
  1296 ;;           ___bmul (ARG)
  1297 ;;             ___awmod (ARG)
  1298 ;;             ___awdiv (ARG)
  1299 ;;               ___awmod (ARG)
  1300 ;;           ___awdiv (ARG)
  1301 ;;             ___awmod (ARG)
  1302 ;;         ___bmul (ARG)
  1303 ;;           ___awmod (ARG)
  1304 ;;           ___awdiv (ARG)
  1305 ;;             ___awmod (ARG)
  1306 ;;         ___awdiv (ARG)
  1307 ;;           ___awmod (ARG)
  1308 ;;         ___awmod (ARG)
  1309 ;;       ___fttol (ARG)
  1310 ;;         ___ftpack (ARG)
  1311 ;;         ___awmod (ARG)
  1312 ;;         ___bmul (ARG)
  1313 ;;           ___awmod (ARG)
  1314 ;;           ___awdiv (ARG)
  1315 ;;             ___awmod (ARG)
  1316 ;;         ___awdiv (ARG)
  1317 ;;           ___awmod (ARG)
  1318 ;;     ___ftmul
  1319 ;;       ___ftpack
  1320 ;;       ___ftdiv (ARG)
  1321 ;;         ___ftpack
  1322 ;;         ___lwtoft (ARG)
  1323 ;;           ___ftpack
  1324 ;;           ___wmul (ARG)
  1325 ;;         ___wmul (ARG)
  1326 ;;       ___lwtoft (ARG)
  1327 ;;         ___ftpack
  1328 ;;         ___wmul (ARG)
  1329 ;;       ___wmul (ARG)
  1330 ;;       ___fttol (ARG)
  1331 ;;         ___ftpack (ARG)
  1332 ;;         ___awmod (ARG)
  1333 ;;         ___bmul (ARG)
  1334 ;;           ___awmod (ARG)
  1335 ;;           ___awdiv (ARG)
  1336 ;;             ___awmod (ARG)
  1337 ;;         ___awdiv (ARG)
  1338 ;;           ___awmod (ARG)
  1339 ;;       ___bmul (ARG)
  1340 ;;         ___awmod (ARG)
  1341 ;;         ___awdiv (ARG)
  1342 ;;           ___awmod (ARG)
  1343 ;;       ___awdiv (ARG)
  1344 ;;         ___awmod (ARG)
  1345 ;;       ___awmod (ARG)
  1346 ;;     _fround
  1347 ;;       ___awmod
  1348 ;;       ___bmul
  1349 ;;         ___awmod (ARG)
  1350 ;;         ___awdiv (ARG)
  1351 ;;           ___awmod (ARG)
  1352 ;;       ___awdiv
  1353 ;;         ___awmod (ARG)
  1354 ;;       ___ftmul
  1355 ;;         ___ftpack
  1356 ;;         ___ftdiv (ARG)
  1357 ;;           ___ftpack
  1358 ;;           ___lwtoft (ARG)
  1359 ;;             ___ftpack
  1360 ;;             ___wmul (ARG)
  1361 ;;           ___wmul (ARG)
  1362 ;;         ___lwtoft (ARG)
  1363 ;;           ___ftpack
  1364 ;;           ___wmul (ARG)
  1365 ;;         ___wmul (ARG)
  1366 ;;         ___fttol (ARG)
  1367 ;;           ___ftpack (ARG)
  1368 ;;           ___awmod (ARG)
  1369 ;;           ___bmul (ARG)
  1370 ;;             ___awmod (ARG)
  1371 ;;             ___awdiv (ARG)
  1372 ;;               ___awmod (ARG)
  1373 ;;           ___awdiv (ARG)
  1374 ;;             ___awmod (ARG)
  1375 ;;         ___bmul (ARG)
  1376 ;;           ___awmod (ARG)
  1377 ;;           ___awdiv (ARG)
  1378 ;;             ___awmod (ARG)
  1379 ;;         ___awdiv (ARG)
  1380 ;;           ___awmod (ARG)
  1381 ;;         ___awmod (ARG)
  1382 ;;       ___ftadd (ARG)
  1383 ;;         ___ftpack
  1384 ;;         ___awmod (ARG)
  1385 ;;         ___bmul (ARG)
  1386 ;;           ___awmod (ARG)
  1387 ;;           ___awdiv (ARG)
  1388 ;;             ___awmod (ARG)
  1389 ;;         ___awdiv (ARG)
  1390 ;;           ___awmod (ARG)
  1391 ;;         ___ftmul (ARG)
  1392 ;;           ___ftpack
  1393 ;;           ___ftdiv (ARG)
  1394 ;;             ___ftpack
  1395 ;;             ___lwtoft (ARG)
  1396 ;;               ___ftpack
  1397 ;;               ___wmul (ARG)
  1398 ;;             ___wmul (ARG)
  1399 ;;           ___lwtoft (ARG)
  1400 ;;             ___ftpack
  1401 ;;             ___wmul (ARG)
  1402 ;;           ___wmul (ARG)
  1403 ;;           ___fttol (ARG)
  1404 ;;             ___ftpack (ARG)
  1405 ;;             ___awmod (ARG)
  1406 ;;             ___bmul (ARG)
  1407 ;;               ___awmod (ARG)
  1408 ;;               ___awdiv (ARG)
  1409 ;;                 ___awmod (ARG)
  1410 ;;             ___awdiv (ARG)
  1411 ;;               ___awmod (ARG)
  1412 ;;           ___bmul (ARG)
  1413 ;;             ___awmod (ARG)
  1414 ;;             ___awdiv (ARG)
  1415 ;;               ___awmod (ARG)
  1416 ;;           ___awdiv (ARG)
  1417 ;;             ___awmod (ARG)
  1418 ;;           ___awmod (ARG)
  1419 ;;     ___ftadd
  1420 ;;       ___ftpack
  1421 ;;       ___awmod (ARG)
  1422 ;;       ___bmul (ARG)
  1423 ;;         ___awmod (ARG)
  1424 ;;         ___awdiv (ARG)
  1425 ;;           ___awmod (ARG)
  1426 ;;       ___awdiv (ARG)
  1427 ;;         ___awmod (ARG)
  1428 ;;       ___ftmul (ARG)
  1429 ;;         ___ftpack
  1430 ;;         ___ftdiv (ARG)
  1431 ;;           ___ftpack
  1432 ;;           ___lwtoft (ARG)
  1433 ;;             ___ftpack
  1434 ;;             ___wmul (ARG)
  1435 ;;           ___wmul (ARG)
  1436 ;;         ___lwtoft (ARG)
  1437 ;;           ___ftpack
  1438 ;;           ___wmul (ARG)
  1439 ;;         ___wmul (ARG)
  1440 ;;         ___fttol (ARG)
  1441 ;;           ___ftpack (ARG)
  1442 ;;           ___awmod (ARG)
  1443 ;;           ___bmul (ARG)
  1444 ;;             ___awmod (ARG)
  1445 ;;             ___awdiv (ARG)
  1446 ;;               ___awmod (ARG)
  1447 ;;           ___awdiv (ARG)
  1448 ;;             ___awmod (ARG)
  1449 ;;         ___bmul (ARG)
  1450 ;;           ___awmod (ARG)
  1451 ;;           ___awdiv (ARG)
  1452 ;;             ___awmod (ARG)
  1453 ;;         ___awdiv (ARG)
  1454 ;;           ___awmod (ARG)
  1455 ;;         ___awmod (ARG)
  1456 ;;     ___fttol
  1457 ;;       ___ftpack (ARG)
  1458 ;;       ___awmod (ARG)
  1459 ;;       ___bmul (ARG)
  1460 ;;         ___awmod (ARG)
  1461 ;;         ___awdiv (ARG)
  1462 ;;           ___awmod (ARG)
  1463 ;;       ___awdiv (ARG)
  1464 ;;         ___awmod (ARG)
  1465 ;;     __div_to_l_
  1466 ;;     __tdiv_to_l_
  1467 ;;     ___lltoft
  1468 ;;       ___ftpack
  1469 ;;     ___ftsub
  1470 ;;       ___ftadd
  1471 ;;         ___ftpack
  1472 ;;         ___awmod (ARG)
  1473 ;;         ___bmul (ARG)
  1474 ;;           ___awmod (ARG)
  1475 ;;           ___awdiv (ARG)
  1476 ;;             ___awmod (ARG)
  1477 ;;         ___awdiv (ARG)
  1478 ;;           ___awmod (ARG)
  1479 ;;         ___ftmul (ARG)
  1480 ;;           ___ftpack
  1481 ;;           ___ftdiv (ARG)
  1482 ;;             ___ftpack
  1483 ;;             ___lwtoft (ARG)
  1484 ;;               ___ftpack
  1485 ;;               ___wmul (ARG)
  1486 ;;             ___wmul (ARG)
  1487 ;;           ___lwtoft (ARG)
  1488 ;;             ___ftpack
  1489 ;;             ___wmul (ARG)
  1490 ;;           ___wmul (ARG)
  1491 ;;           ___fttol (ARG)
  1492 ;;             ___ftpack (ARG)
  1493 ;;             ___awmod (ARG)
  1494 ;;             ___bmul (ARG)
  1495 ;;               ___awmod (ARG)
  1496 ;;               ___awdiv (ARG)
  1497 ;;                 ___awmod (ARG)
  1498 ;;             ___awdiv (ARG)
  1499 ;;               ___awmod (ARG)
  1500 ;;           ___bmul (ARG)
  1501 ;;             ___awmod (ARG)
  1502 ;;             ___awdiv (ARG)
  1503 ;;               ___awmod (ARG)
  1504 ;;           ___awdiv (ARG)
  1505 ;;             ___awmod (ARG)
  1506 ;;           ___awmod (ARG)
  1507 ;;       ___lltoft (ARG)
  1508 ;;         ___ftpack
  1509 ;;     ___lldiv
  1510 ;;     ___llmod
  1511 ;;       ___lldiv (ARG)
  1512 ;;
  1513 ;; _interupt (ROOT)
  1514 ;;
  1515                           
  1516 ;; Address spaces:
  1517                           
  1518 ;;Name               Size   Autos  Total    Cost      Usage
  1519 ;;BITCOMMON            E      0       1       0        7.1%
  1520 ;;EEDATA             100      0       0       0        0.0%
  1521 ;;NULL                 0      0       0       0        0.0%
  1522 ;;CODE                 0      0       0       0        0.0%
  1523 ;;COMMON               E      7       D       1       92.9%
  1524 ;;BITSFR0              0      0       0       1        0.0%
  1525 ;;SFR0                 0      0       0       1        0.0%
  1526 ;;BITSFR1              0      0       0       2        0.0%
  1527 ;;SFR1                 0      0       0       2        0.0%
  1528 ;;STACK                0      0       4       2        0.0%
  1529 ;;ABS                  0      0      8E       3        0.0%
  1530 ;;BITBANK0            50      0       0       4        0.0%
  1531 ;;BITSFR3              0      0       0       4        0.0%
  1532 ;;SFR3                 0      0       0       4        0.0%
  1533 ;;BANK0               50     4F      4F       5       98.8%
  1534 ;;BITSFR2              0      0       0       5        0.0%
  1535 ;;SFR2                 0      0       0       5        0.0%
  1536 ;;BITBANK1            50      0       0       6        0.0%
  1537 ;;BANK1               50     20      32       7       62.5%
  1538 ;;BITBANK3            60      0       0       8        0.0%
  1539 ;;BANK3               60      0       0       9        0.0%
  1540 ;;BITBANK2            60      0       0      10        0.0%
  1541 ;;BANK2               60      0       0      11        0.0%
  1542 ;;DATA                 0      0      92      12        0.0%
  1543                           
  1544                           	global	_main
  1545                           psect	maintext,global,class=CODE,delta=2
  1546                           global __pmaintext
  1547  0A70                     __pmaintext:
  1548                           
  1549 ;; *************** function _main *****************
  1550 ;; Defined at:
  1551 ;;		line 193 in file "C:\Users\Felipe\Desktop\Cdigos\Microcontroladores\Projeto Estufa\PROB03 PIC 16F877A\P3\proj1.0.c"
  1552 ;; Parameters:    Size  Location     Type
  1553 ;;		None
  1554 ;; Auto vars:     Size  Location     Type
  1555 ;;		None
  1556 ;; Return value:  Size  Location     Type
  1557 ;;		None               void
  1558 ;; Registers used:
  1559 ;;		wreg, fsr0l, fsr0h, status,2, status,0, btemp+1, pclath, cstack
  1560 ;; Tracked objects:
  1561 ;;		On entry : 17F/0
  1562 ;;		On exit  : 0/0
  1563 ;;		Unchanged: 0/0
  1564 ;; Data sizes:     COMMON   BANK0   BANK1   BANK3   BANK2
  1565 ;;      Params:         0       0       0       0       0
  1566 ;;      Locals:         0       0       0       0       0
  1567 ;;      Temps:          0       0       0       0       0
  1568 ;;      Totals:         0       0       0       0       0
  1569 ;;Total ram usage:        0 bytes
  1570 ;; Hardware stack levels required when called:    5
  1571 ;; This function calls:
  1572 ;;		___wmul
  1573 ;;		___lwtoft
  1574 ;;		___ftdiv
  1575 ;;		___ftmul
  1576 ;;		___ftge
  1577 ;;		_printf
  1578 ;; This function is called by:
  1579 ;;		Startup code after reset
  1580 ;; This function uses a non-reentrant model
  1581 ;;
  1582                           psect	maintext
  1583                           	file	"C:\Users\Felipe\Desktop\Cdigos\Microcontroladores\Projeto Estufa\PROB03 PIC 16F8
                                 77A\P3\proj1.0.c"
  1584                           	line	193
  1585                           	global	__size_of_main
  1586  02B9                     	__size_of_main	equ	__end_of_main-_main
  1587                           	
  1588  0A70                     _main:	
  1589                           	opt	stack 3
  1590                           ; Regs used in _main: [wreg-fsr0h+status,2+status,0+btemp+1+pclath+cstack]
  1591                           	line	194
  1592                           	
  1593  0A70                     l6902:	
  1594                           # 194 "C:\Users\Felipe\Desktop\Cdigos\Microcontroladores\Projeto Estufa\PROB03 PIC 16F8
                                 77A\P3\proj1.0.c"
  1595                           	psect config,class=CONFIG,delta=2 ;#
  1596                           # 194 "C:\Users\Felipe\Desktop\Cdigos\Microcontroladores\Projeto Estufa\PROB03 PIC 16F8
                                 77A\P3\proj1.0.c"
  1597  2007  FF3A               	dw 0xFFFF & 0xFFFB & 0xFFBF & 0xFFFF & 0xFFFE & 0xFFFF & 0xFF7F & 0xFFFF ;#
  1598                           psect	maintext
  1599                           	line	196
  1600                           ;proj1.0.c: 196: TRISA0 = 1;
  1601  0A70  1683               	bsf	status, 5	;RP0=1, select bank1
  1602  0A71  1303               	bcf	status, 6	;RP1=0, select bank1
  1603  0A72  1405               	bsf	(1064/8)^080h,(1064)&7
  1604                           	line	197
  1605                           ;proj1.0.c: 197: TRISA1 = 1;
  1606  0A73  1485               	bsf	(1065/8)^080h,(1065)&7
  1607                           	line	198
  1608                           ;proj1.0.c: 198: TRISA5 = 1;
  1609  0A74  1685               	bsf	(1069/8)^080h,(1069)&7
  1610                           	line	199
  1611                           ;proj1.0.c: 199: TRISA4 = 0;
  1612  0A75  1205               	bcf	(1068/8)^080h,(1068)&7
  1613                           	line	200
  1614                           ;proj1.0.c: 200: TRISA5 = 0;
  1615  0A76  1285               	bcf	(1069/8)^080h,(1069)&7
  1616                           	line	203
  1617                           	
  1618  0A77                     l6904:	
  1619                           ;proj1.0.c: 203: TRISB = 0b11111111;
  1620  0A77  30FF               	movlw	(0FFh)
  1621  0A78  0086               	movwf	(134)^080h	;volatile
  1622                           	line	204
  1623                           	
  1624  0A79                     l6906:	
  1625                           ;proj1.0.c: 204: TRISB0 = 0;
  1626  0A79  1006               	bcf	(1072/8)^080h,(1072)&7
  1627                           	line	205
  1628                           	
  1629  0A7A                     l6908:	
  1630                           ;proj1.0.c: 205: TRISB1 = 0;
  1631  0A7A  1086               	bcf	(1073/8)^080h,(1073)&7
  1632                           	line	206
  1633                           	
  1634  0A7B                     l6910:	
  1635                           ;proj1.0.c: 206: TRISB2 = 0;
  1636  0A7B  1106               	bcf	(1074/8)^080h,(1074)&7
  1637                           	line	207
  1638                           	
  1639  0A7C                     l6912:	
  1640                           ;proj1.0.c: 207: TRISB3 = 0;
  1641  0A7C  1186               	bcf	(1075/8)^080h,(1075)&7
  1642                           	line	208
  1643                           	
  1644  0A7D                     l6914:	
  1645                           ;proj1.0.c: 208: TRISB6 = 1;
  1646  0A7D  1706               	bsf	(1078/8)^080h,(1078)&7
  1647                           	line	211
  1648                           	
  1649  0A7E                     l6916:	
  1650                           ;proj1.0.c: 211: INTEDG = 1;
  1651  0A7E  1701               	bsf	(1038/8)^080h,(1038)&7
  1652                           	line	212
  1653                           	
  1654  0A7F                     l6918:	
  1655                           ;proj1.0.c: 212: INTF = 0;
  1656  0A7F  108B               	bcf	(89/8),(89)&7
  1657                           	line	213
  1658                           	
  1659  0A80                     l6920:	
  1660                           ;proj1.0.c: 213: INTE = 1;
  1661  0A80  160B               	bsf	(92/8),(92)&7
  1662                           	line	217
  1663                           	
  1664  0A81                     l6922:	
  1665                           ;proj1.0.c: 217: T0CS = 0;
  1666  0A81  1281               	bcf	(1037/8)^080h,(1037)&7
  1667                           	line	218
  1668                           	
  1669  0A82                     l6924:	
  1670                           ;proj1.0.c: 218: T0SE = 0;
  1671  0A82  1201               	bcf	(1036/8)^080h,(1036)&7
  1672                           	line	219
  1673                           	
  1674  0A83                     l6926:	
  1675                           ;proj1.0.c: 219: PSA = 0;
  1676  0A83  1181               	bcf	(1035/8)^080h,(1035)&7
  1677                           	line	220
  1678                           	
  1679  0A84                     l6928:	
  1680                           ;proj1.0.c: 220: PS2 = 1;
  1681  0A84  1501               	bsf	(1034/8)^080h,(1034)&7
  1682                           	line	221
  1683                           	
  1684  0A85                     l6930:	
  1685                           ;proj1.0.c: 221: PS1 = 1;
  1686  0A85  1481               	bsf	(1033/8)^080h,(1033)&7
  1687                           	line	222
  1688                           	
  1689  0A86                     l6932:	
  1690                           ;proj1.0.c: 222: PS0 = 1;
  1691  0A86  1401               	bsf	(1032/8)^080h,(1032)&7
  1692                           	line	224
  1693                           	
  1694  0A87                     l6934:	
  1695                           ;proj1.0.c: 224: TMR0IF = 0;
  1696  0A87  110B               	bcf	(90/8),(90)&7
  1697                           	line	225
  1698                           	
  1699  0A88                     l6936:	
  1700                           ;proj1.0.c: 225: TMR0IE = 1;
  1701  0A88  168B               	bsf	(93/8),(93)&7
  1702                           	line	226
  1703                           	
  1704  0A89                     l6938:	
  1705                           ;proj1.0.c: 226: RBIF = 0;
  1706  0A89  100B               	bcf	(88/8),(88)&7
  1707                           	line	227
  1708                           	
  1709  0A8A                     l6940:	
  1710                           ;proj1.0.c: 227: RBIE = 1;
  1711  0A8A  158B               	bsf	(91/8),(91)&7
  1712                           	line	228
  1713                           	
  1714  0A8B                     l6942:	
  1715                           ;proj1.0.c: 228: PEIE = 1;
  1716  0A8B  170B               	bsf	(94/8),(94)&7
  1717                           	line	229
  1718                           	
  1719  0A8C                     l6944:	
  1720                           ;proj1.0.c: 229: GIE = 1;
  1721  0A8C  178B               	bsf	(95/8),(95)&7
  1722                           	line	232
  1723                           	
  1724  0A8D                     l6946:	
  1725                           ;proj1.0.c: 232: TRISC7 = 1; TRISC6 = 1; SPBRG = ((int)(20000000/(16UL * 9600) -1)); RCS
                                 TA = (0|0x90); TXSTA = (0x4|0|0x20);
  1726  0A8D  1787               	bsf	(1087/8)^080h,(1087)&7
  1727                           	
  1728  0A8E                     l6948:	
  1729  0A8E  1707               	bsf	(1086/8)^080h,(1086)&7
  1730  0A8F  3081               	movlw	(081h)
  1731  0A90  0099               	movwf	(153)^080h	;volatile
  1732  0A91  3090               	movlw	(090h)
  1733  0A92  1283               	bcf	status, 5	;RP0=0, select bank0
  1734  0A93  1303               	bcf	status, 6	;RP1=0, select bank0
  1735  0A94  0098               	movwf	(24)	;volatile
  1736  0A95  3024               	movlw	(024h)
  1737  0A96  1683               	bsf	status, 5	;RP0=1, select bank1
  1738  0A97  1303               	bcf	status, 6	;RP1=0, select bank1
  1739  0A98  0098               	movwf	(152)^080h	;volatile
  1740                           	line	238
  1741                           	
  1742  0A99                     l6950:	
  1743                           ;proj1.0.c: 238: ADCS1 = 1;
  1744  0A99  1283               	bcf	status, 5	;RP0=0, select bank0
  1745  0A9A  1303               	bcf	status, 6	;RP1=0, select bank0
  1746  0A9B  179F               	bsf	(255/8),(255)&7
  1747                           	line	239
  1748                           	
  1749  0A9C                     l6952:	
  1750                           ;proj1.0.c: 239: ADCS2 = 1;
  1751  0A9C  1683               	bsf	status, 5	;RP0=1, select bank1
  1752  0A9D  1303               	bcf	status, 6	;RP1=0, select bank1
  1753  0A9E  171F               	bsf	(1278/8)^080h,(1278)&7
  1754                           	line	240
  1755                           	
  1756  0A9F                     l6954:	
  1757                           ;proj1.0.c: 240: ADCS0 = 0;
  1758  0A9F  1283               	bcf	status, 5	;RP0=0, select bank0
  1759  0AA0  1303               	bcf	status, 6	;RP1=0, select bank0
  1760  0AA1  131F               	bcf	(254/8),(254)&7
  1761                           	line	242
  1762                           	
  1763  0AA2                     l6956:	
  1764                           ;proj1.0.c: 242: CHS0 = 0;
  1765  0AA2  119F               	bcf	(251/8),(251)&7
  1766                           	line	243
  1767                           	
  1768  0AA3                     l6958:	
  1769                           ;proj1.0.c: 243: CHS1 = 0;
  1770  0AA3  121F               	bcf	(252/8),(252)&7
  1771                           	line	244
  1772                           	
  1773  0AA4                     l6960:	
  1774                           ;proj1.0.c: 244: CHS2 = 0;
  1775  0AA4  129F               	bcf	(253/8),(253)&7
  1776                           	line	246
  1777                           	
  1778  0AA5                     l6962:	
  1779                           ;proj1.0.c: 246: ADFM = 0;
  1780  0AA5  1683               	bsf	status, 5	;RP0=1, select bank1
  1781  0AA6  1303               	bcf	status, 6	;RP1=0, select bank1
  1782  0AA7  139F               	bcf	(1279/8)^080h,(1279)&7
  1783                           	line	248
  1784                           	
  1785  0AA8                     l6964:	
  1786                           ;proj1.0.c: 248: PCFG3 = 0;
  1787  0AA8  119F               	bcf	(1275/8)^080h,(1275)&7
  1788                           	line	249
  1789                           	
  1790  0AA9                     l6966:	
  1791                           ;proj1.0.c: 249: PCFG2 = 1;
  1792  0AA9  151F               	bsf	(1274/8)^080h,(1274)&7
  1793                           	line	250
  1794                           	
  1795  0AAA                     l6968:	
  1796                           ;proj1.0.c: 250: PCFG1 = 0;
  1797  0AAA  109F               	bcf	(1273/8)^080h,(1273)&7
  1798                           	line	251
  1799                           	
  1800  0AAB                     l6970:	
  1801                           ;proj1.0.c: 251: PCFG0 = 0;
  1802  0AAB  101F               	bcf	(1272/8)^080h,(1272)&7
  1803                           	line	253
  1804                           	
  1805  0AAC                     l6972:	
  1806                           ;proj1.0.c: 253: ADIF = 0;
  1807  0AAC  1283               	bcf	status, 5	;RP0=0, select bank0
  1808  0AAD  1303               	bcf	status, 6	;RP1=0, select bank0
  1809  0AAE  130C               	bcf	(102/8),(102)&7
  1810                           	line	254
  1811                           	
  1812  0AAF                     l6974:	
  1813                           ;proj1.0.c: 254: ADIE = 1;
  1814  0AAF  1683               	bsf	status, 5	;RP0=1, select bank1
  1815  0AB0  1303               	bcf	status, 6	;RP1=0, select bank1
  1816  0AB1  170C               	bsf	(1126/8)^080h,(1126)&7
  1817                           	line	271
  1818                           	
  1819  0AB2                     l6976:	
  1820                           ;proj1.0.c: 271: ADON = 1;
  1821  0AB2  1283               	bcf	status, 5	;RP0=0, select bank0
  1822  0AB3  1303               	bcf	status, 6	;RP1=0, select bank0
  1823  0AB4  141F               	bsf	(248/8),(248)&7
  1824                           	line	273
  1825                           	
  1826  0AB5                     l6978:	
  1827                           ;proj1.0.c: 273: GO_DONE = 1;
  1828  0AB5  151F               	bsf	(250/8),(250)&7
  1829                           	line	275
  1830                           	
  1831  0AB6                     l6980:	
  1832                           ;proj1.0.c: 275: RB2 = 0;
  1833  0AB6  1106               	bcf	(50/8),(50)&7
  1834                           	line	276
  1835                           	
  1836  0AB7                     l6982:	
  1837                           ;proj1.0.c: 276: RB3=0;
  1838  0AB7  1186               	bcf	(51/8),(51)&7
  1839                           	line	277
  1840                           	
  1841  0AB8                     l6984:	
  1842                           ;proj1.0.c: 277: RA4 = 0;
  1843  0AB8  1205               	bcf	(44/8),(44)&7
  1844                           	line	278
  1845                           	
  1846  0AB9                     l6986:	
  1847                           ;proj1.0.c: 278: RA5 = 0;
  1848  0AB9  1285               	bcf	(45/8),(45)&7
  1849  0ABA  2ABB               	goto	l6988
  1850                           	line	280
  1851                           ;proj1.0.c: 280: while(1)
  1852                           	
  1853  0ABB                     l748:	
  1854                           	line	286
  1855                           	
  1856  0ABB                     l6988:	
  1857                           ;proj1.0.c: 281: {
  1858                           ;proj1.0.c: 286: temp = (5 * dataTemp / 1023.0)*100;
  1859  0ABB  3000               	movlw	0x0
  1860  0ABC  1283               	bcf	status, 5	;RP0=0, select bank0
  1861  0ABD  00C2               	movwf	(?___ftmul)
  1862  0ABE  30C8               	movlw	0xc8
  1863  0ABF  00C3               	movwf	(?___ftmul+1)
  1864  0AC0  3042               	movlw	0x42
  1865  0AC1  00C4               	movwf	(?___ftmul+2)
  1866  0AC2  30C0               	movlw	0xc0
  1867  0AC3  00AC               	movwf	(?___ftdiv)
  1868  0AC4  307F               	movlw	0x7f
  1869  0AC5  00AD               	movwf	(?___ftdiv+1)
  1870  0AC6  3044               	movlw	0x44
  1871  0AC7  00AE               	movwf	(?___ftdiv+2)
  1872  0AC8  1683               	bsf	status, 5	;RP0=1, select bank1
  1873  0AC9  1303               	bcf	status, 6	;RP1=0, select bank1
  1874  0ACA  084E               	movf	(_dataTemp+1)^080h,w
  1875  0ACB  1283               	bcf	status, 5	;RP0=0, select bank0
  1876  0ACC  1303               	bcf	status, 6	;RP1=0, select bank0
  1877  0ACD  01A1               	clrf	(?___wmul+1)
  1878  0ACE  07A1               	addwf	(?___wmul+1)
  1879  0ACF  1683               	bsf	status, 5	;RP0=1, select bank1
  1880  0AD0  1303               	bcf	status, 6	;RP1=0, select bank1
  1881  0AD1  084D               	movf	(_dataTemp)^080h,w
  1882  0AD2  1283               	bcf	status, 5	;RP0=0, select bank0
  1883  0AD3  1303               	bcf	status, 6	;RP1=0, select bank0
  1884  0AD4  01A0               	clrf	(?___wmul)
  1885  0AD5  07A0               	addwf	(?___wmul)
  1886                           
  1887  0AD6  3005               	movlw	low(05h)
  1888  0AD7  00A2               	movwf	0+(?___wmul)+02h
  1889  0AD8  3000               	movlw	high(05h)
  1890  0AD9  00A3               	movwf	(0+(?___wmul)+02h)+1
  1891  0ADA  160A  158A  270E   	fcall	___wmul
              120A  158A         
  1892  0ADF  1283               	bcf	status, 5	;RP0=0, select bank0
  1893  0AE0  1303               	bcf	status, 6	;RP1=0, select bank0
  1894  0AE1  0821               	movf	(1+(?___wmul)),w
  1895  0AE2  01A9               	clrf	(?___lwtoft+1)
  1896  0AE3  07A9               	addwf	(?___lwtoft+1)
  1897  0AE4  0820               	movf	(0+(?___wmul)),w
  1898  0AE5  01A8               	clrf	(?___lwtoft)
  1899  0AE6  07A8               	addwf	(?___lwtoft)
  1900                           
  1901  0AE7  160A  158A  26D8   	fcall	___lwtoft
              120A  158A         
  1902  0AEC  1283               	bcf	status, 5	;RP0=0, select bank0
  1903  0AED  1303               	bcf	status, 6	;RP1=0, select bank0
  1904  0AEE  0828               	movf	(0+(?___lwtoft)),w
  1905  0AEF  00AF               	movwf	0+(?___ftdiv)+03h
  1906  0AF0  0829               	movf	(1+(?___lwtoft)),w
  1907  0AF1  00B0               	movwf	1+(?___ftdiv)+03h
  1908  0AF2  082A               	movf	(2+(?___lwtoft)),w
  1909  0AF3  00B1               	movwf	2+(?___ftdiv)+03h
  1910  0AF4  160A  118A  22CD   	fcall	___ftdiv
              120A  158A         
  1911  0AF9  1283               	bcf	status, 5	;RP0=0, select bank0
  1912  0AFA  1303               	bcf	status, 6	;RP1=0, select bank0
  1913  0AFB  082C               	movf	(0+(?___ftdiv)),w
  1914  0AFC  00C5               	movwf	0+(?___ftmul)+03h
  1915  0AFD  082D               	movf	(1+(?___ftdiv)),w
  1916  0AFE  00C6               	movwf	1+(?___ftmul)+03h
  1917  0AFF  082E               	movf	(2+(?___ftdiv)),w
  1918  0B00  00C7               	movwf	2+(?___ftmul)+03h
  1919  0B01  160A  118A  2477   	fcall	___ftmul
              120A  158A         
  1920  0B06  1283               	bcf	status, 5	;RP0=0, select bank0
  1921  0B07  1303               	bcf	status, 6	;RP1=0, select bank0
  1922  0B08  0842               	movf	(0+(?___ftmul)),w
  1923  0B09  1683               	bsf	status, 5	;RP0=1, select bank1
  1924  0B0A  1303               	bcf	status, 6	;RP1=0, select bank1
  1925  0B0B  00CF               	movwf	(_temp)^080h
  1926  0B0C  1283               	bcf	status, 5	;RP0=0, select bank0
  1927  0B0D  1303               	bcf	status, 6	;RP1=0, select bank0
  1928  0B0E  0843               	movf	(1+(?___ftmul)),w
  1929  0B0F  1683               	bsf	status, 5	;RP0=1, select bank1
  1930  0B10  1303               	bcf	status, 6	;RP1=0, select bank1
  1931  0B11  00D0               	movwf	(_temp+1)^080h
  1932  0B12  1283               	bcf	status, 5	;RP0=0, select bank0
  1933  0B13  1303               	bcf	status, 6	;RP1=0, select bank0
  1934  0B14  0844               	movf	(2+(?___ftmul)),w
  1935  0B15  1683               	bsf	status, 5	;RP0=1, select bank1
  1936  0B16  1303               	bcf	status, 6	;RP1=0, select bank1
  1937  0B17  00D1               	movwf	(_temp+2)^080h
  1938                           	line	291
  1939                           	
  1940  0B18                     l6990:	
  1941                           ;proj1.0.c: 291: if(temp > 20)
  1942  0B18  3000               	movlw	0x0
  1943  0B19  1283               	bcf	status, 5	;RP0=0, select bank0
  1944  0B1A  1303               	bcf	status, 6	;RP1=0, select bank0
  1945  0B1B  00A0               	movwf	(?___ftge)
  1946  0B1C  30A0               	movlw	0xa0
  1947  0B1D  00A1               	movwf	(?___ftge+1)
  1948  0B1E  3041               	movlw	0x41
  1949  0B1F  00A2               	movwf	(?___ftge+2)
  1950  0B20  1683               	bsf	status, 5	;RP0=1, select bank1
  1951  0B21  1303               	bcf	status, 6	;RP1=0, select bank1
  1952  0B22  084F               	movf	(_temp)^080h,w
  1953  0B23  1283               	bcf	status, 5	;RP0=0, select bank0
  1954  0B24  1303               	bcf	status, 6	;RP1=0, select bank0
  1955  0B25  00A3               	movwf	0+(?___ftge)+03h
  1956  0B26  1683               	bsf	status, 5	;RP0=1, select bank1
  1957  0B27  1303               	bcf	status, 6	;RP1=0, select bank1
  1958  0B28  0850               	movf	(_temp+1)^080h,w
  1959  0B29  1283               	bcf	status, 5	;RP0=0, select bank0
  1960  0B2A  1303               	bcf	status, 6	;RP1=0, select bank0
  1961  0B2B  00A4               	movwf	1+(?___ftge)+03h
  1962  0B2C  1683               	bsf	status, 5	;RP0=1, select bank1
  1963  0B2D  1303               	bcf	status, 6	;RP1=0, select bank1
  1964  0B2E  0851               	movf	(_temp+2)^080h,w
  1965  0B2F  1283               	bcf	status, 5	;RP0=0, select bank0
  1966  0B30  1303               	bcf	status, 6	;RP1=0, select bank0
  1967  0B31  00A5               	movwf	2+(?___ftge)+03h
  1968  0B32  160A  118A  20FC   	fcall	___ftge
              120A  158A         
  1969  0B37  1803               	btfsc	status,0
  1970  0B38  2B3A               	goto	u6061
  1971  0B39  2B3B               	goto	u6060
  1972  0B3A                     u6061:
  1973  0B3A  2B3F               	goto	l749
  1974  0B3B                     u6060:
  1975                           	line	293
  1976                           	
  1977  0B3B                     l6992:	
  1978                           ;proj1.0.c: 292: {
  1979                           ;proj1.0.c: 293: RB1 = 1;
  1980  0B3B  1283               	bcf	status, 5	;RP0=0, select bank0
  1981  0B3C  1303               	bcf	status, 6	;RP1=0, select bank0
  1982  0B3D  1486               	bsf	(49/8),(49)&7
  1983                           	line	294
  1984                           ;proj1.0.c: 294: }else
  1985  0B3E  2B43               	goto	l6994
  1986                           	
  1987  0B3F                     l749:	
  1988                           	line	296
  1989                           ;proj1.0.c: 295: {
  1990                           ;proj1.0.c: 296: RB1 = 0;
  1991  0B3F  1283               	bcf	status, 5	;RP0=0, select bank0
  1992  0B40  1303               	bcf	status, 6	;RP1=0, select bank0
  1993  0B41  1086               	bcf	(49/8),(49)&7
  1994  0B42  2B43               	goto	l6994
  1995                           	line	297
  1996                           	
  1997  0B43                     l750:	
  1998                           	line	304
  1999                           	
  2000  0B43                     l6994:	
  2001                           ;proj1.0.c: 297: }
  2002                           ;proj1.0.c: 304: luz = (5 * dataLuz / 1023.0);
  2003  0B43  30C0               	movlw	0xc0
  2004  0B44  00AC               	movwf	(?___ftdiv)
  2005  0B45  307F               	movlw	0x7f
  2006  0B46  00AD               	movwf	(?___ftdiv+1)
  2007  0B47  3044               	movlw	0x44
  2008  0B48  00AE               	movwf	(?___ftdiv+2)
  2009  0B49  1683               	bsf	status, 5	;RP0=1, select bank1
  2010  0B4A  1303               	bcf	status, 6	;RP1=0, select bank1
  2011  0B4B  084C               	movf	(_dataLuz+1)^080h,w
  2012  0B4C  1283               	bcf	status, 5	;RP0=0, select bank0
  2013  0B4D  1303               	bcf	status, 6	;RP1=0, select bank0
  2014  0B4E  01A1               	clrf	(?___wmul+1)
  2015  0B4F  07A1               	addwf	(?___wmul+1)
  2016  0B50  1683               	bsf	status, 5	;RP0=1, select bank1
  2017  0B51  1303               	bcf	status, 6	;RP1=0, select bank1
  2018  0B52  084B               	movf	(_dataLuz)^080h,w
  2019  0B53  1283               	bcf	status, 5	;RP0=0, select bank0
  2020  0B54  1303               	bcf	status, 6	;RP1=0, select bank0
  2021  0B55  01A0               	clrf	(?___wmul)
  2022  0B56  07A0               	addwf	(?___wmul)
  2023                           
  2024  0B57  3005               	movlw	low(05h)
  2025  0B58  00A2               	movwf	0+(?___wmul)+02h
  2026  0B59  3000               	movlw	high(05h)
  2027  0B5A  00A3               	movwf	(0+(?___wmul)+02h)+1
  2028  0B5B  160A  158A  270E   	fcall	___wmul
              120A  158A         
  2029  0B60  1283               	bcf	status, 5	;RP0=0, select bank0
  2030  0B61  1303               	bcf	status, 6	;RP1=0, select bank0
  2031  0B62  0821               	movf	(1+(?___wmul)),w
  2032  0B63  01A9               	clrf	(?___lwtoft+1)
  2033  0B64  07A9               	addwf	(?___lwtoft+1)
  2034  0B65  0820               	movf	(0+(?___wmul)),w
  2035  0B66  01A8               	clrf	(?___lwtoft)
  2036  0B67  07A8               	addwf	(?___lwtoft)
  2037                           
  2038  0B68  160A  158A  26D8   	fcall	___lwtoft
              120A  158A         
  2039  0B6D  1283               	bcf	status, 5	;RP0=0, select bank0
  2040  0B6E  1303               	bcf	status, 6	;RP1=0, select bank0
  2041  0B6F  0828               	movf	(0+(?___lwtoft)),w
  2042  0B70  00AF               	movwf	0+(?___ftdiv)+03h
  2043  0B71  0829               	movf	(1+(?___lwtoft)),w
  2044  0B72  00B0               	movwf	1+(?___ftdiv)+03h
  2045  0B73  082A               	movf	(2+(?___lwtoft)),w
  2046  0B74  00B1               	movwf	2+(?___ftdiv)+03h
  2047  0B75  160A  118A  22CD   	fcall	___ftdiv
              120A  158A         
  2048  0B7A  1283               	bcf	status, 5	;RP0=0, select bank0
  2049  0B7B  1303               	bcf	status, 6	;RP1=0, select bank0
  2050  0B7C  082C               	movf	(0+(?___ftdiv)),w
  2051  0B7D  1683               	bsf	status, 5	;RP0=1, select bank1
  2052  0B7E  1303               	bcf	status, 6	;RP1=0, select bank1
  2053  0B7F  00C3               	movwf	(_luz)^080h
  2054  0B80  1283               	bcf	status, 5	;RP0=0, select bank0
  2055  0B81  1303               	bcf	status, 6	;RP1=0, select bank0
  2056  0B82  082D               	movf	(1+(?___ftdiv)),w
  2057  0B83  1683               	bsf	status, 5	;RP0=1, select bank1
  2058  0B84  1303               	bcf	status, 6	;RP1=0, select bank1
  2059  0B85  00C4               	movwf	(_luz+1)^080h
  2060  0B86  1283               	bcf	status, 5	;RP0=0, select bank0
  2061  0B87  1303               	bcf	status, 6	;RP1=0, select bank0
  2062  0B88  082E               	movf	(2+(?___ftdiv)),w
  2063  0B89  1683               	bsf	status, 5	;RP0=1, select bank1
  2064  0B8A  1303               	bcf	status, 6	;RP1=0, select bank1
  2065  0B8B  00C5               	movwf	(_luz+2)^080h
  2066                           	line	306
  2067                           	
  2068  0B8C                     l6996:	
  2069                           ;proj1.0.c: 306: printf("\nA luminosidade eh: %f", luz);
  2070  0B8C  0843               	movf	(_luz)^080h,w
  2071  0B8D  00A0               	movwf	(?_printf)^080h
  2072  0B8E  0844               	movf	(_luz+1)^080h,w
  2073  0B8F  00A1               	movwf	(?_printf+1)^080h
  2074  0B90  0845               	movf	(_luz+2)^080h,w
  2075  0B91  00A2               	movwf	(?_printf+2)^080h
  2076  0B92  30B8               	movlw	((STR_1-__stringbase))&0ffh
  2077  0B93  120A  118A  2015   	fcall	_printf
              120A  158A         
  2078                           	line	308
  2079                           	
  2080  0B98                     l6998:	
  2081                           ;proj1.0.c: 308: if(luz < 1.20)
  2082  0B98  1683               	bsf	status, 5	;RP0=1, select bank1
  2083  0B99  1303               	bcf	status, 6	;RP1=0, select bank1
  2084  0B9A  0843               	movf	(_luz)^080h,w
  2085  0B9B  1283               	bcf	status, 5	;RP0=0, select bank0
  2086  0B9C  1303               	bcf	status, 6	;RP1=0, select bank0
  2087  0B9D  00A0               	movwf	(?___ftge)
  2088  0B9E  1683               	bsf	status, 5	;RP0=1, select bank1
  2089  0B9F  1303               	bcf	status, 6	;RP1=0, select bank1
  2090  0BA0  0844               	movf	(_luz+1)^080h,w
  2091  0BA1  1283               	bcf	status, 5	;RP0=0, select bank0
  2092  0BA2  1303               	bcf	status, 6	;RP1=0, select bank0
  2093  0BA3  00A1               	movwf	(?___ftge+1)
  2094  0BA4  1683               	bsf	status, 5	;RP0=1, select bank1
  2095  0BA5  1303               	bcf	status, 6	;RP1=0, select bank1
  2096  0BA6  0845               	movf	(_luz+2)^080h,w
  2097  0BA7  1283               	bcf	status, 5	;RP0=0, select bank0
  2098  0BA8  1303               	bcf	status, 6	;RP1=0, select bank0
  2099  0BA9  00A2               	movwf	(?___ftge+2)
  2100  0BAA  309A               	movlw	0x9a
  2101  0BAB  00A3               	movwf	0+(?___ftge)+03h
  2102  0BAC  3099               	movlw	0x99
  2103  0BAD  00A4               	movwf	1+(?___ftge)+03h
  2104  0BAE  303F               	movlw	0x3f
  2105  0BAF  00A5               	movwf	2+(?___ftge)+03h
  2106  0BB0  160A  118A  20FC   	fcall	___ftge
              120A  158A         
  2107  0BB5  1803               	btfsc	status,0
  2108  0BB6  2BB8               	goto	u6071
  2109  0BB7  2BB9               	goto	u6070
  2110  0BB8                     u6071:
  2111  0BB8  2BBD               	goto	l7002
  2112  0BB9                     u6070:
  2113                           	line	310
  2114                           	
  2115  0BB9                     l7000:	
  2116                           ;proj1.0.c: 309: {
  2117                           ;proj1.0.c: 310: RB0 = 1;
  2118  0BB9  1283               	bcf	status, 5	;RP0=0, select bank0
  2119  0BBA  1303               	bcf	status, 6	;RP1=0, select bank0
  2120  0BBB  1406               	bsf	(48/8),(48)&7
  2121                           	line	311
  2122                           ;proj1.0.c: 311: }
  2123  0BBC  2C71               	goto	l7018
  2124                           	line	312
  2125                           	
  2126  0BBD                     l751:	
  2127                           	
  2128  0BBD                     l7002:	
  2129                           ;proj1.0.c: 312: else if ( luz >= 1.20 && luz < 2.4)
  2130  0BBD  1683               	bsf	status, 5	;RP0=1, select bank1
  2131  0BBE  1303               	bcf	status, 6	;RP1=0, select bank1
  2132  0BBF  0843               	movf	(_luz)^080h,w
  2133  0BC0  1283               	bcf	status, 5	;RP0=0, select bank0
  2134  0BC1  1303               	bcf	status, 6	;RP1=0, select bank0
  2135  0BC2  00A0               	movwf	(?___ftge)
  2136  0BC3  1683               	bsf	status, 5	;RP0=1, select bank1
  2137  0BC4  1303               	bcf	status, 6	;RP1=0, select bank1
  2138  0BC5  0844               	movf	(_luz+1)^080h,w
  2139  0BC6  1283               	bcf	status, 5	;RP0=0, select bank0
  2140  0BC7  1303               	bcf	status, 6	;RP1=0, select bank0
  2141  0BC8  00A1               	movwf	(?___ftge+1)
  2142  0BC9  1683               	bsf	status, 5	;RP0=1, select bank1
  2143  0BCA  1303               	bcf	status, 6	;RP1=0, select bank1
  2144  0BCB  0845               	movf	(_luz+2)^080h,w
  2145  0BCC  1283               	bcf	status, 5	;RP0=0, select bank0
  2146  0BCD  1303               	bcf	status, 6	;RP1=0, select bank0
  2147  0BCE  00A2               	movwf	(?___ftge+2)
  2148  0BCF  309A               	movlw	0x9a
  2149  0BD0  00A3               	movwf	0+(?___ftge)+03h
  2150  0BD1  3099               	movlw	0x99
  2151  0BD2  00A4               	movwf	1+(?___ftge)+03h
  2152  0BD3  303F               	movlw	0x3f
  2153  0BD4  00A5               	movwf	2+(?___ftge)+03h
  2154  0BD5  160A  118A  20FC   	fcall	___ftge
              120A  158A         
  2155  0BDA  1C03               	btfss	status,0
  2156  0BDB  2BDD               	goto	u6081
  2157  0BDC  2BDE               	goto	u6080
  2158  0BDD                     u6081:
  2159  0BDD  2C03               	goto	l7008
  2160  0BDE                     u6080:
  2161                           	
  2162  0BDE                     l7004:	
  2163  0BDE  1683               	bsf	status, 5	;RP0=1, select bank1
  2164  0BDF  1303               	bcf	status, 6	;RP1=0, select bank1
  2165  0BE0  0843               	movf	(_luz)^080h,w
  2166  0BE1  1283               	bcf	status, 5	;RP0=0, select bank0
  2167  0BE2  1303               	bcf	status, 6	;RP1=0, select bank0
  2168  0BE3  00A0               	movwf	(?___ftge)
  2169  0BE4  1683               	bsf	status, 5	;RP0=1, select bank1
  2170  0BE5  1303               	bcf	status, 6	;RP1=0, select bank1
  2171  0BE6  0844               	movf	(_luz+1)^080h,w
  2172  0BE7  1283               	bcf	status, 5	;RP0=0, select bank0
  2173  0BE8  1303               	bcf	status, 6	;RP1=0, select bank0
  2174  0BE9  00A1               	movwf	(?___ftge+1)
  2175  0BEA  1683               	bsf	status, 5	;RP0=1, select bank1
  2176  0BEB  1303               	bcf	status, 6	;RP1=0, select bank1
  2177  0BEC  0845               	movf	(_luz+2)^080h,w
  2178  0BED  1283               	bcf	status, 5	;RP0=0, select bank0
  2179  0BEE  1303               	bcf	status, 6	;RP1=0, select bank0
  2180  0BEF  00A2               	movwf	(?___ftge+2)
  2181  0BF0  309A               	movlw	0x9a
  2182  0BF1  00A3               	movwf	0+(?___ftge)+03h
  2183  0BF2  3019               	movlw	0x19
  2184  0BF3  00A4               	movwf	1+(?___ftge)+03h
  2185  0BF4  3040               	movlw	0x40
  2186  0BF5  00A5               	movwf	2+(?___ftge)+03h
  2187  0BF6  160A  118A  20FC   	fcall	___ftge
              120A  158A         
  2188  0BFB  1803               	btfsc	status,0
  2189  0BFC  2BFE               	goto	u6091
  2190  0BFD  2BFF               	goto	u6090
  2191  0BFE                     u6091:
  2192  0BFE  2C03               	goto	l7008
  2193  0BFF                     u6090:
  2194                           	line	314
  2195                           	
  2196  0BFF                     l7006:	
  2197                           ;proj1.0.c: 313: {
  2198                           ;proj1.0.c: 314: RB0 = 1;
  2199  0BFF  1283               	bcf	status, 5	;RP0=0, select bank0
  2200  0C00  1303               	bcf	status, 6	;RP1=0, select bank0
  2201  0C01  1406               	bsf	(48/8),(48)&7
  2202                           	line	315
  2203                           ;proj1.0.c: 315: }
  2204  0C02  2C71               	goto	l7018
  2205                           	line	316
  2206                           	
  2207  0C03                     l753:	
  2208                           	
  2209  0C03                     l7008:	
  2210                           ;proj1.0.c: 316: else if ( luz >= 2.4 && luz < 4.8)
  2211  0C03  1683               	bsf	status, 5	;RP0=1, select bank1
  2212  0C04  1303               	bcf	status, 6	;RP1=0, select bank1
  2213  0C05  0843               	movf	(_luz)^080h,w
  2214  0C06  1283               	bcf	status, 5	;RP0=0, select bank0
  2215  0C07  1303               	bcf	status, 6	;RP1=0, select bank0
  2216  0C08  00A0               	movwf	(?___ftge)
  2217  0C09  1683               	bsf	status, 5	;RP0=1, select bank1
  2218  0C0A  1303               	bcf	status, 6	;RP1=0, select bank1
  2219  0C0B  0844               	movf	(_luz+1)^080h,w
  2220  0C0C  1283               	bcf	status, 5	;RP0=0, select bank0
  2221  0C0D  1303               	bcf	status, 6	;RP1=0, select bank0
  2222  0C0E  00A1               	movwf	(?___ftge+1)
  2223  0C0F  1683               	bsf	status, 5	;RP0=1, select bank1
  2224  0C10  1303               	bcf	status, 6	;RP1=0, select bank1
  2225  0C11  0845               	movf	(_luz+2)^080h,w
  2226  0C12  1283               	bcf	status, 5	;RP0=0, select bank0
  2227  0C13  1303               	bcf	status, 6	;RP1=0, select bank0
  2228  0C14  00A2               	movwf	(?___ftge+2)
  2229  0C15  309A               	movlw	0x9a
  2230  0C16  00A3               	movwf	0+(?___ftge)+03h
  2231  0C17  3019               	movlw	0x19
  2232  0C18  00A4               	movwf	1+(?___ftge)+03h
  2233  0C19  3040               	movlw	0x40
  2234  0C1A  00A5               	movwf	2+(?___ftge)+03h
  2235  0C1B  160A  118A  20FC   	fcall	___ftge
              120A  158A         
  2236  0C20  1C03               	btfss	status,0
  2237  0C21  2C23               	goto	u6101
  2238  0C22  2C24               	goto	u6100
  2239  0C23                     u6101:
  2240  0C23  2C49               	goto	l7014
  2241  0C24                     u6100:
  2242                           	
  2243  0C24                     l7010:	
  2244  0C24  1683               	bsf	status, 5	;RP0=1, select bank1
  2245  0C25  1303               	bcf	status, 6	;RP1=0, select bank1
  2246  0C26  0843               	movf	(_luz)^080h,w
  2247  0C27  1283               	bcf	status, 5	;RP0=0, select bank0
  2248  0C28  1303               	bcf	status, 6	;RP1=0, select bank0
  2249  0C29  00A0               	movwf	(?___ftge)
  2250  0C2A  1683               	bsf	status, 5	;RP0=1, select bank1
  2251  0C2B  1303               	bcf	status, 6	;RP1=0, select bank1
  2252  0C2C  0844               	movf	(_luz+1)^080h,w
  2253  0C2D  1283               	bcf	status, 5	;RP0=0, select bank0
  2254  0C2E  1303               	bcf	status, 6	;RP1=0, select bank0
  2255  0C2F  00A1               	movwf	(?___ftge+1)
  2256  0C30  1683               	bsf	status, 5	;RP0=1, select bank1
  2257  0C31  1303               	bcf	status, 6	;RP1=0, select bank1
  2258  0C32  0845               	movf	(_luz+2)^080h,w
  2259  0C33  1283               	bcf	status, 5	;RP0=0, select bank0
  2260  0C34  1303               	bcf	status, 6	;RP1=0, select bank0
  2261  0C35  00A2               	movwf	(?___ftge+2)
  2262  0C36  309A               	movlw	0x9a
  2263  0C37  00A3               	movwf	0+(?___ftge)+03h
  2264  0C38  3099               	movlw	0x99
  2265  0C39  00A4               	movwf	1+(?___ftge)+03h
  2266  0C3A  3040               	movlw	0x40
  2267  0C3B  00A5               	movwf	2+(?___ftge)+03h
  2268  0C3C  160A  118A  20FC   	fcall	___ftge
              120A  158A         
  2269  0C41  1803               	btfsc	status,0
  2270  0C42  2C44               	goto	u6111
  2271  0C43  2C45               	goto	u6110
  2272  0C44                     u6111:
  2273  0C44  2C49               	goto	l7014
  2274  0C45                     u6110:
  2275                           	line	318
  2276                           	
  2277  0C45                     l7012:	
  2278                           ;proj1.0.c: 317: {
  2279                           ;proj1.0.c: 318: RB0 = 0;
  2280  0C45  1283               	bcf	status, 5	;RP0=0, select bank0
  2281  0C46  1303               	bcf	status, 6	;RP1=0, select bank0
  2282  0C47  1006               	bcf	(48/8),(48)&7
  2283                           	line	319
  2284                           ;proj1.0.c: 319: }
  2285  0C48  2C71               	goto	l7018
  2286                           	line	320
  2287                           	
  2288  0C49                     l755:	
  2289                           	
  2290  0C49                     l7014:	
  2291                           ;proj1.0.c: 320: else if ( luz >= 4.8)
  2292  0C49  1683               	bsf	status, 5	;RP0=1, select bank1
  2293  0C4A  1303               	bcf	status, 6	;RP1=0, select bank1
  2294  0C4B  0843               	movf	(_luz)^080h,w
  2295  0C4C  1283               	bcf	status, 5	;RP0=0, select bank0
  2296  0C4D  1303               	bcf	status, 6	;RP1=0, select bank0
  2297  0C4E  00A0               	movwf	(?___ftge)
  2298  0C4F  1683               	bsf	status, 5	;RP0=1, select bank1
  2299  0C50  1303               	bcf	status, 6	;RP1=0, select bank1
  2300  0C51  0844               	movf	(_luz+1)^080h,w
  2301  0C52  1283               	bcf	status, 5	;RP0=0, select bank0
  2302  0C53  1303               	bcf	status, 6	;RP1=0, select bank0
  2303  0C54  00A1               	movwf	(?___ftge+1)
  2304  0C55  1683               	bsf	status, 5	;RP0=1, select bank1
  2305  0C56  1303               	bcf	status, 6	;RP1=0, select bank1
  2306  0C57  0845               	movf	(_luz+2)^080h,w
  2307  0C58  1283               	bcf	status, 5	;RP0=0, select bank0
  2308  0C59  1303               	bcf	status, 6	;RP1=0, select bank0
  2309  0C5A  00A2               	movwf	(?___ftge+2)
  2310  0C5B  309A               	movlw	0x9a
  2311  0C5C  00A3               	movwf	0+(?___ftge)+03h
  2312  0C5D  3099               	movlw	0x99
  2313  0C5E  00A4               	movwf	1+(?___ftge)+03h
  2314  0C5F  3040               	movlw	0x40
  2315  0C60  00A5               	movwf	2+(?___ftge)+03h
  2316  0C61  160A  118A  20FC   	fcall	___ftge
              120A  158A         
  2317  0C66  1C03               	btfss	status,0
  2318  0C67  2C69               	goto	u6121
  2319  0C68  2C6A               	goto	u6120
  2320  0C69                     u6121:
  2321  0C69  2C71               	goto	l7018
  2322  0C6A                     u6120:
  2323                           	line	322
  2324                           	
  2325  0C6A                     l7016:	
  2326                           ;proj1.0.c: 321: {
  2327                           ;proj1.0.c: 322: RB0 = 0;
  2328  0C6A  1283               	bcf	status, 5	;RP0=0, select bank0
  2329  0C6B  1303               	bcf	status, 6	;RP1=0, select bank0
  2330  0C6C  1006               	bcf	(48/8),(48)&7
  2331  0C6D  2C71               	goto	l7018
  2332                           	line	323
  2333                           	
  2334  0C6E                     l757:	
  2335  0C6E  2C71               	goto	l7018
  2336                           	line	328
  2337                           	
  2338  0C6F                     l756:	
  2339  0C6F  2C71               	goto	l7018
  2340                           	
  2341  0C70                     l754:	
  2342  0C70  2C71               	goto	l7018
  2343                           	
  2344  0C71                     l752:	
  2345                           	
  2346  0C71                     l7018:	
  2347                           ;proj1.0.c: 323: }
  2348                           ;proj1.0.c: 328: bateria = (5 * dataBat / 1023.0);
  2349  0C71  30C0               	movlw	0xc0
  2350  0C72  1283               	bcf	status, 5	;RP0=0, select bank0
  2351  0C73  1303               	bcf	status, 6	;RP1=0, select bank0
  2352  0C74  00AC               	movwf	(?___ftdiv)
  2353  0C75  307F               	movlw	0x7f
  2354  0C76  00AD               	movwf	(?___ftdiv+1)
  2355  0C77  3044               	movlw	0x44
  2356  0C78  00AE               	movwf	(?___ftdiv+2)
  2357  0C79  1683               	bsf	status, 5	;RP0=1, select bank1
  2358  0C7A  1303               	bcf	status, 6	;RP1=0, select bank1
  2359  0C7B  084A               	movf	(_dataBat+1)^080h,w
  2360  0C7C  1283               	bcf	status, 5	;RP0=0, select bank0
  2361  0C7D  1303               	bcf	status, 6	;RP1=0, select bank0
  2362  0C7E  01A1               	clrf	(?___wmul+1)
  2363  0C7F  07A1               	addwf	(?___wmul+1)
  2364  0C80  1683               	bsf	status, 5	;RP0=1, select bank1
  2365  0C81  1303               	bcf	status, 6	;RP1=0, select bank1
  2366  0C82  0849               	movf	(_dataBat)^080h,w
  2367  0C83  1283               	bcf	status, 5	;RP0=0, select bank0
  2368  0C84  1303               	bcf	status, 6	;RP1=0, select bank0
  2369  0C85  01A0               	clrf	(?___wmul)
  2370  0C86  07A0               	addwf	(?___wmul)
  2371                           
  2372  0C87  3005               	movlw	low(05h)
  2373  0C88  00A2               	movwf	0+(?___wmul)+02h
  2374  0C89  3000               	movlw	high(05h)
  2375  0C8A  00A3               	movwf	(0+(?___wmul)+02h)+1
  2376  0C8B  160A  158A  270E   	fcall	___wmul
              120A  158A         
  2377  0C90  1283               	bcf	status, 5	;RP0=0, select bank0
  2378  0C91  1303               	bcf	status, 6	;RP1=0, select bank0
  2379  0C92  0821               	movf	(1+(?___wmul)),w
  2380  0C93  01A9               	clrf	(?___lwtoft+1)
  2381  0C94  07A9               	addwf	(?___lwtoft+1)
  2382  0C95  0820               	movf	(0+(?___wmul)),w
  2383  0C96  01A8               	clrf	(?___lwtoft)
  2384  0C97  07A8               	addwf	(?___lwtoft)
  2385                           
  2386  0C98  160A  158A  26D8   	fcall	___lwtoft
              120A  158A         
  2387  0C9D  1283               	bcf	status, 5	;RP0=0, select bank0
  2388  0C9E  1303               	bcf	status, 6	;RP1=0, select bank0
  2389  0C9F  0828               	movf	(0+(?___lwtoft)),w
  2390  0CA0  00AF               	movwf	0+(?___ftdiv)+03h
  2391  0CA1  0829               	movf	(1+(?___lwtoft)),w
  2392  0CA2  00B0               	movwf	1+(?___ftdiv)+03h
  2393  0CA3  082A               	movf	(2+(?___lwtoft)),w
  2394  0CA4  00B1               	movwf	2+(?___ftdiv)+03h
  2395  0CA5  160A  118A  22CD   	fcall	___ftdiv
              120A  158A         
  2396  0CAA  1283               	bcf	status, 5	;RP0=0, select bank0
  2397  0CAB  1303               	bcf	status, 6	;RP1=0, select bank0
  2398  0CAC  082C               	movf	(0+(?___ftdiv)),w
  2399  0CAD  1683               	bsf	status, 5	;RP0=1, select bank1
  2400  0CAE  1303               	bcf	status, 6	;RP1=0, select bank1
  2401  0CAF  00C0               	movwf	(_bateria)^080h
  2402  0CB0  1283               	bcf	status, 5	;RP0=0, select bank0
  2403  0CB1  1303               	bcf	status, 6	;RP1=0, select bank0
  2404  0CB2  082D               	movf	(1+(?___ftdiv)),w
  2405  0CB3  1683               	bsf	status, 5	;RP0=1, select bank1
  2406  0CB4  1303               	bcf	status, 6	;RP1=0, select bank1
  2407  0CB5  00C1               	movwf	(_bateria+1)^080h
  2408  0CB6  1283               	bcf	status, 5	;RP0=0, select bank0
  2409  0CB7  1303               	bcf	status, 6	;RP1=0, select bank0
  2410  0CB8  082E               	movf	(2+(?___ftdiv)),w
  2411  0CB9  1683               	bsf	status, 5	;RP0=1, select bank1
  2412  0CBA  1303               	bcf	status, 6	;RP1=0, select bank1
  2413  0CBB  00C2               	movwf	(_bateria+2)^080h
  2414                           	line	330
  2415                           ;proj1.0.c: 330: if(bateria>=2.45) printf("\nA bateria esta acima da metade");
  2416  0CBC  0840               	movf	(_bateria)^080h,w
  2417  0CBD  1283               	bcf	status, 5	;RP0=0, select bank0
  2418  0CBE  1303               	bcf	status, 6	;RP1=0, select bank0
  2419  0CBF  00A0               	movwf	(?___ftge)
  2420  0CC0  1683               	bsf	status, 5	;RP0=1, select bank1
  2421  0CC1  1303               	bcf	status, 6	;RP1=0, select bank1
  2422  0CC2  0841               	movf	(_bateria+1)^080h,w
  2423  0CC3  1283               	bcf	status, 5	;RP0=0, select bank0
  2424  0CC4  1303               	bcf	status, 6	;RP1=0, select bank0
  2425  0CC5  00A1               	movwf	(?___ftge+1)
  2426  0CC6  1683               	bsf	status, 5	;RP0=1, select bank1
  2427  0CC7  1303               	bcf	status, 6	;RP1=0, select bank1
  2428  0CC8  0842               	movf	(_bateria+2)^080h,w
  2429  0CC9  1283               	bcf	status, 5	;RP0=0, select bank0
  2430  0CCA  1303               	bcf	status, 6	;RP1=0, select bank0
  2431  0CCB  00A2               	movwf	(?___ftge+2)
  2432  0CCC  30CD               	movlw	0xcd
  2433  0CCD  00A3               	movwf	0+(?___ftge)+03h
  2434  0CCE  301C               	movlw	0x1c
  2435  0CCF  00A4               	movwf	1+(?___ftge)+03h
  2436  0CD0  3040               	movlw	0x40
  2437  0CD1  00A5               	movwf	2+(?___ftge)+03h
  2438  0CD2  160A  118A  20FC   	fcall	___ftge
              120A  158A         
  2439  0CD7  1C03               	btfss	status,0
  2440  0CD8  2CDA               	goto	u6131
  2441  0CD9  2CDB               	goto	u6130
  2442  0CDA                     u6131:
  2443  0CDA  2CE2               	goto	l7022
  2444  0CDB                     u6130:
  2445                           	
  2446  0CDB                     l7020:	
  2447  0CDB  3098               	movlw	((STR_2-__stringbase))&0ffh
  2448  0CDC  120A  118A  2015   	fcall	_printf
              120A  158A         
  2449  0CE1  2CE9               	goto	l7024
  2450                           	line	331
  2451                           	
  2452  0CE2                     l758:	
  2453                           	
  2454  0CE2                     l7022:	
  2455                           ;proj1.0.c: 331: else printf("\nA bateria esta abaixo da metade");
  2456  0CE2  3077               	movlw	((STR_3-__stringbase))&0ffh
  2457  0CE3  120A  118A  2015   	fcall	_printf
              120A  158A         
  2458  0CE8  2CE9               	goto	l7024
  2459                           	
  2460  0CE9                     l759:	
  2461                           	line	339
  2462                           	
  2463  0CE9                     l7024:	
  2464                           ;proj1.0.c: 339: if(temp > 40)
  2465  0CE9  3000               	movlw	0x0
  2466  0CEA  1283               	bcf	status, 5	;RP0=0, select bank0
  2467  0CEB  1303               	bcf	status, 6	;RP1=0, select bank0
  2468  0CEC  00A0               	movwf	(?___ftge)
  2469  0CED  3020               	movlw	0x20
  2470  0CEE  00A1               	movwf	(?___ftge+1)
  2471  0CEF  3042               	movlw	0x42
  2472  0CF0  00A2               	movwf	(?___ftge+2)
  2473  0CF1  1683               	bsf	status, 5	;RP0=1, select bank1
  2474  0CF2  1303               	bcf	status, 6	;RP1=0, select bank1
  2475  0CF3  084F               	movf	(_temp)^080h,w
  2476  0CF4  1283               	bcf	status, 5	;RP0=0, select bank0
  2477  0CF5  1303               	bcf	status, 6	;RP1=0, select bank0
  2478  0CF6  00A3               	movwf	0+(?___ftge)+03h
  2479  0CF7  1683               	bsf	status, 5	;RP0=1, select bank1
  2480  0CF8  1303               	bcf	status, 6	;RP1=0, select bank1
  2481  0CF9  0850               	movf	(_temp+1)^080h,w
  2482  0CFA  1283               	bcf	status, 5	;RP0=0, select bank0
  2483  0CFB  1303               	bcf	status, 6	;RP1=0, select bank0
  2484  0CFC  00A4               	movwf	1+(?___ftge)+03h
  2485  0CFD  1683               	bsf	status, 5	;RP0=1, select bank1
  2486  0CFE  1303               	bcf	status, 6	;RP1=0, select bank1
  2487  0CFF  0851               	movf	(_temp+2)^080h,w
  2488  0D00  1283               	bcf	status, 5	;RP0=0, select bank0
  2489  0D01  1303               	bcf	status, 6	;RP1=0, select bank0
  2490  0D02  00A5               	movwf	2+(?___ftge)+03h
  2491  0D03  160A  118A  20FC   	fcall	___ftge
              120A  158A         
  2492  0D08  1803               	btfsc	status,0
  2493  0D09  2D0B               	goto	u6141
  2494  0D0A  2D0C               	goto	u6140
  2495  0D0B                     u6141:
  2496  0D0B  2D0F               	goto	l760
  2497  0D0C                     u6140:
  2498                           	line	341
  2499                           	
  2500  0D0C                     l7026:	
  2501                           ;proj1.0.c: 340: {
  2502                           ;proj1.0.c: 341: RA4 = 0;
  2503  0D0C  1283               	bcf	status, 5	;RP0=0, select bank0
  2504  0D0D  1303               	bcf	status, 6	;RP1=0, select bank0
  2505  0D0E  1205               	bcf	(44/8),(44)&7
  2506                           	line	342
  2507                           	
  2508  0D0F                     l760:	
  2509                           	line	345
  2510                           ;proj1.0.c: 342: }
  2511                           ;proj1.0.c: 345: if(RA4 == 0)
  2512  0D0F  1283               	bcf	status, 5	;RP0=0, select bank0
  2513  0D10  1303               	bcf	status, 6	;RP1=0, select bank0
  2514  0D11  1A05               	btfsc	(44/8),(44)&7
  2515  0D12  2D14               	goto	u6151
  2516  0D13  2D15               	goto	u6150
  2517  0D14                     u6151:
  2518  0D14  2D18               	goto	l7030
  2519  0D15                     u6150:
  2520                           	line	347
  2521                           	
  2522  0D15                     l7028:	
  2523                           ;proj1.0.c: 346: {
  2524                           ;proj1.0.c: 347: RA5 = ~RA5;
  2525  0D15  3020               	movlw	1<<((45)&7)
  2526  0D16  0685               	xorwf	((45)/8),f
  2527  0D17  2D18               	goto	l7030
  2528                           	line	348
  2529                           	
  2530  0D18                     l761:	
  2531                           	line	351
  2532                           	
  2533  0D18                     l7030:	
  2534                           ;proj1.0.c: 348: }
  2535                           ;proj1.0.c: 351: if(RB4 == 0)
  2536  0D18  1A06               	btfsc	(52/8),(52)&7
  2537  0D19  2D1B               	goto	u6161
  2538  0D1A  2D1C               	goto	u6160
  2539  0D1B                     u6161:
  2540  0D1B  2ABB               	goto	l6988
  2541  0D1C                     u6160:
  2542                           	line	353
  2543                           	
  2544  0D1C                     l7032:	
  2545                           ;proj1.0.c: 352: {
  2546                           ;proj1.0.c: 353: portaFlag = 1;
  2547  0D1C  3001               	movlw	low(01h)
  2548  0D1D  1683               	bsf	status, 5	;RP0=1, select bank1
  2549  0D1E  1303               	bcf	status, 6	;RP1=0, select bank1
  2550  0D1F  00C6               	movwf	(_portaFlag)^080h
  2551  0D20  3000               	movlw	high(01h)
  2552  0D21  00C7               	movwf	((_portaFlag)^080h)+1
  2553                           	line	354
  2554                           	
  2555  0D22                     l7034:	
  2556                           ;proj1.0.c: 354: portaCount = 0;
  2557  0D22  01C8               	clrf	(_portaCount)^080h
  2558  0D23  2ABB               	goto	l6988
  2559                           	line	356
  2560                           	
  2561  0D24                     l762:	
  2562  0D24  2ABB               	goto	l6988
  2563                           	line	358
  2564                           	
  2565  0D25                     l763:	
  2566                           	line	280
  2567  0D25  2ABB               	goto	l6988
  2568                           	
  2569  0D26                     l764:	
  2570                           	line	359
  2571                           	
  2572  0D26                     l765:	
  2573                           	global	start
  2574  0D26  120A  118A  2812   	ljmp	start
  2575                           	opt stack 0
  2576                           GLOBAL	__end_of_main
  2577  0D29                     	__end_of_main:
  2578 ;; =============== function _main ends ============
  2579                           
  2580                           	signat	_main,88
  2581                           	global	_printf
  2582                           psect	text760,local,class=CODE,delta=2
  2583                           global __ptext760
  2584  0015                     __ptext760:
  2585                           
  2586 ;; *************** function _printf *****************
  2587 ;; Defined at:
  2588 ;;		line 461 in file "C:\Program Files (x86)\HI-TECH Software\PICC\9.83\lib\doprnt.c"
  2589 ;; Parameters:    Size  Location     Type
  2590 ;;  f               1    wreg     PTR const unsigned char 
  2591 ;;		 -> STR_3(33), STR_2(32), STR_1(23), 
  2592 ;; Auto vars:     Size  Location     Type
  2593 ;;  f               1   14[BANK1 ] PTR const unsigned char 
  2594 ;;		 -> STR_3(33), STR_2(32), STR_1(23), 
  2595 ;;  _val            4   19[BANK1 ] struct .
  2596 ;;  fval            3   28[BANK1 ] struct .
  2597 ;;  integ           3   23[BANK1 ] struct .
  2598 ;;  ival            3    0        struct .
  2599 ;;  exp             2   26[BANK1 ] int 
  2600 ;;  prec            2   17[BANK1 ] int 
  2601 ;;  flag            2   15[BANK1 ] unsigned short 
  2602 ;;  width           2    0        int 
  2603 ;;  c               1   31[BANK1 ] char 
  2604 ;;  ap              1   13[BANK1 ] PTR void [1]
  2605 ;;		 -> ?_printf(2), 
  2606 ;;  d               1    0        unsigned char 
  2607 ;; Return value:  Size  Location     Type
  2608 ;;                  2    0[BANK1 ] int 
  2609 ;; Registers used:
  2610 ;;		wreg, fsr0l, fsr0h, status,2, status,0, btemp+1, pclath, cstack
  2611 ;; Tracked objects:
  2612 ;;		On entry : 0/0
  2613 ;;		On exit  : 0/0
  2614 ;;		Unchanged: 0/0
  2615 ;; Data sizes:     COMMON   BANK0   BANK1   BANK3   BANK2
  2616 ;;      Params:         0       0       3       0       0
  2617 ;;      Locals:         0       0      23       0       0
  2618 ;;      Temps:          0       0       6       0       0
  2619 ;;      Totals:         0       0      32       0       0
  2620 ;;Total ram usage:       32 bytes
  2621 ;; Hardware stack levels used:    1
  2622 ;; Hardware stack levels required when called:    4
  2623 ;; This function calls:
  2624 ;;		_putch
  2625 ;;		___ftge
  2626 ;;		___ftneg
  2627 ;;		___wmul
  2628 ;;		___awdiv
  2629 ;;		_scale
  2630 ;;		___ftmul
  2631 ;;		_fround
  2632 ;;		___ftadd
  2633 ;;		___fttol
  2634 ;;		__div_to_l_
  2635 ;;		__tdiv_to_l_
  2636 ;;		___lltoft
  2637 ;;		___ftsub
  2638 ;;		___lldiv
  2639 ;;		___llmod
  2640 ;; This function is called by:
  2641 ;;		_main
  2642 ;; This function uses a non-reentrant model
  2643 ;;
  2644                           psect	text760
  2645                           	file	"C:\Program Files (x86)\HI-TECH Software\PICC\9.83\sources\doprnt.c"
  2646                           	line	461
  2647                           	global	__size_of_printf
  2648  0642                     	__size_of_printf	equ	__end_of_printf-_printf
  2649                           	
  2650  0015                     _printf:	
  2651                           	opt	stack 3
  2652                           ; Regs used in _printf: [wreg-fsr0h+status,2+status,0+btemp+1+pclath+cstack]
  2653                           ;printf@f stored from wreg
  2654                           	line	537
  2655  0015  1683               	bsf	status, 5	;RP0=1, select bank1
  2656  0016  1303               	bcf	status, 6	;RP1=0, select bank1
  2657  0017  00AE               	movwf	(printf@f)^080h
  2658                           	
  2659  0018                     l6762:	
  2660  0018  30A0               	movlw	(?_printf)&0ffh
  2661  0019  00A3               	movwf	(??_printf+0)^080h+0
  2662  001A  0823               	movf	(??_printf+0)^080h+0,w
  2663  001B  00AD               	movwf	(printf@ap)^080h
  2664                           	line	540
  2665  001C  2E40               	goto	l6900
  2666                           	
  2667  001D                     l1498:	
  2668                           	line	542
  2669                           	
  2670  001D                     l6764:	
  2671  001D  083F               	movf	(printf@c)^080h,w
  2672  001E  3A25               	xorlw	025h
  2673  001F  1903               	skipnz
  2674  0020  2822               	goto	u5761
  2675  0021  2823               	goto	u5760
  2676  0022                     u5761:
  2677  0022  282A               	goto	l6768
  2678  0023                     u5760:
  2679                           	line	545
  2680                           	
  2681  0023                     l6766:	
  2682  0023  083F               	movf	(printf@c)^080h,w
  2683  0024  160A  158A  26B2   	fcall	_putch
              120A  118A         
  2684                           	line	546
  2685  0029  2E40               	goto	l6900
  2686                           	line	547
  2687                           	
  2688  002A                     l1499:	
  2689                           	line	552
  2690                           	
  2691  002A                     l6768:	
  2692  002A  1683               	bsf	status, 5	;RP0=1, select bank1
  2693  002B  1303               	bcf	status, 6	;RP1=0, select bank1
  2694  002C  01AF               	clrf	(printf@flag)^080h
  2695  002D  01B0               	clrf	(printf@flag+1)^080h
  2696                           	line	638
  2697  002E  2834               	goto	l6772
  2698                           	line	640
  2699                           	
  2700  002F                     l1501:	
  2701                           	line	641
  2702  002F  2E56               	goto	l1545
  2703                           	line	665
  2704                           	
  2705  0030                     l1503:	
  2706                           	line	666
  2707  0030  1530               	bsf	(printf@flag)^080h+(10/8),(10)&7
  2708                           	line	667
  2709  0031  2846               	goto	l6774
  2710                           	line	805
  2711                           	
  2712  0032                     l1505:	
  2713                           	line	816
  2714  0032  2E40               	goto	l6900
  2715                           	line	825
  2716                           	
  2717  0033                     l6770:	
  2718  0033  2846               	goto	l6774
  2719                           	line	638
  2720                           	
  2721  0034                     l1500:	
  2722                           	
  2723  0034                     l6772:	
  2724  0034  3001               	movlw	01h
  2725  0035  07AE               	addwf	(printf@f)^080h,f
  2726  0036  30FF               	movlw	-01h
  2727  0037  072E               	addwf	(printf@f)^080h,w
  2728  0038  0084               	movwf	fsr0
  2729  0039  160A  118A  2000   	fcall	stringdir
              120A  118A         
  2730  003E  00BF               	movwf	(printf@c)^080h
  2731                           	; Switch size 1, requested type "space"
  2732                           ; Number of cases is 2, Range of values is 0 to 102
  2733                           ; switch strategies available:
  2734                           ; Name         Instructions Cycles
  2735                           ; simple_byte            7     4 (average)
  2736                           ; jumptable            260     6 (fixed)
  2737                           ; rangetable           107     6 (fixed)
  2738                           ; spacedrange          212     9 (fixed)
  2739                           ; locatedrange         103     3 (fixed)
  2740                           ;	Chosen strategy is simple_byte
  2741                           
  2742                           	opt asmopt_off
  2743  003F  3A00               	xorlw	0^0	; case 0
  2744  0040  1903               	skipnz
  2745  0041  2E56               	goto	l1545
  2746  0042  3A66               	xorlw	102^0	; case 102
  2747  0043  1903               	skipnz
  2748  0044  2830               	goto	l1503
  2749  0045  2E40               	goto	l6900
  2750                           	opt asmopt_on
  2751                           
  2752                           	line	825
  2753                           	
  2754  0046                     l1504:	
  2755                           	line	828
  2756                           	
  2757  0046                     l6774:	
  2758  0046  3000               	movlw	low(0700h)
  2759  0047  052F               	andwf	(printf@flag)^080h,w
  2760  0048  00A3               	movwf	(??_printf+0)^080h+0
  2761  0049  3007               	movlw	high(0700h)
  2762  004A  0530               	andwf	(printf@flag+1)^080h,w
  2763  004B  00A4               	movwf	1+(??_printf+0)^080h+0
  2764  004C  0824               	movf	1+(??_printf+0)^080h+0,w
  2765  004D  0423               	iorwf	0+(??_printf+0)^080h+0,w
  2766  004E  1903               	skipnz
  2767  004F  2851               	goto	u5771
  2768  0050  2852               	goto	u5770
  2769  0051                     u5771:
  2770  0051  2E2C               	goto	l6896
  2771  0052                     u5770:
  2772                           	line	832
  2773                           	
  2774  0052                     l6776:	
  2775  0052  3006               	movlw	low(06h)
  2776  0053  00B1               	movwf	(printf@prec)^080h
  2777  0054  3000               	movlw	high(06h)
  2778  0055  00B2               	movwf	((printf@prec)^080h)+1
  2779                           	line	833
  2780                           	
  2781  0056                     l6778:	
  2782  0056  082D               	movf	(printf@ap)^080h,w
  2783  0057  0084               	movwf	fsr0
  2784  0058  1383               	bcf	status, 7	;select IRP bank0
  2785  0059  0800               	movf	indf,w
  2786  005A  00BC               	movwf	(printf@fval)^080h
  2787  005B  0A84               	incf	fsr0,f
  2788  005C  0800               	movf	indf,w
  2789  005D  00BD               	movwf	(printf@fval+1)^080h
  2790  005E  0A84               	incf	fsr0,f
  2791  005F  0800               	movf	indf,w
  2792  0060  00BE               	movwf	(printf@fval+2)^080h
  2793                           	
  2794  0061                     l6780:	
  2795  0061  3003               	movlw	(03h)
  2796  0062  00A3               	movwf	(??_printf+0)^080h+0
  2797  0063  0823               	movf	(??_printf+0)^080h+0,w
  2798  0064  07AD               	addwf	(printf@ap)^080h,f
  2799                           	line	834
  2800                           	
  2801  0065                     l6782:	
  2802  0065  083C               	movf	(printf@fval)^080h,w
  2803  0066  1283               	bcf	status, 5	;RP0=0, select bank0
  2804  0067  1303               	bcf	status, 6	;RP1=0, select bank0
  2805  0068  00A0               	movwf	(?___ftge)
  2806  0069  1683               	bsf	status, 5	;RP0=1, select bank1
  2807  006A  1303               	bcf	status, 6	;RP1=0, select bank1
  2808  006B  083D               	movf	(printf@fval+1)^080h,w
  2809  006C  1283               	bcf	status, 5	;RP0=0, select bank0
  2810  006D  1303               	bcf	status, 6	;RP1=0, select bank0
  2811  006E  00A1               	movwf	(?___ftge+1)
  2812  006F  1683               	bsf	status, 5	;RP0=1, select bank1
  2813  0070  1303               	bcf	status, 6	;RP1=0, select bank1
  2814  0071  083E               	movf	(printf@fval+2)^080h,w
  2815  0072  1283               	bcf	status, 5	;RP0=0, select bank0
  2816  0073  1303               	bcf	status, 6	;RP1=0, select bank0
  2817  0074  00A2               	movwf	(?___ftge+2)
  2818  0075  3000               	movlw	0x0
  2819  0076  00A3               	movwf	0+(?___ftge)+03h
  2820  0077  3000               	movlw	0x0
  2821  0078  00A4               	movwf	1+(?___ftge)+03h
  2822  0079  3000               	movlw	0x0
  2823  007A  00A5               	movwf	2+(?___ftge)+03h
  2824  007B  160A  118A  20FC   	fcall	___ftge
              120A  118A         
  2825  0080  1803               	btfsc	status,0
  2826  0081  2883               	goto	u5781
  2827  0082  2884               	goto	u5780
  2828  0083                     u5781:
  2829  0083  28B2               	goto	l6788
  2830  0084                     u5780:
  2831                           	line	835
  2832                           	
  2833  0084                     l6784:	
  2834  0084  1683               	bsf	status, 5	;RP0=1, select bank1
  2835  0085  1303               	bcf	status, 6	;RP1=0, select bank1
  2836  0086  083C               	movf	(printf@fval)^080h,w
  2837  0087  1283               	bcf	status, 5	;RP0=0, select bank0
  2838  0088  1303               	bcf	status, 6	;RP1=0, select bank0
  2839  0089  00A0               	movwf	(?___ftneg)
  2840  008A  1683               	bsf	status, 5	;RP0=1, select bank1
  2841  008B  1303               	bcf	status, 6	;RP1=0, select bank1
  2842  008C  083D               	movf	(printf@fval+1)^080h,w
  2843  008D  1283               	bcf	status, 5	;RP0=0, select bank0
  2844  008E  1303               	bcf	status, 6	;RP1=0, select bank0
  2845  008F  00A1               	movwf	(?___ftneg+1)
  2846  0090  1683               	bsf	status, 5	;RP0=1, select bank1
  2847  0091  1303               	bcf	status, 6	;RP1=0, select bank1
  2848  0092  083E               	movf	(printf@fval+2)^080h,w
  2849  0093  1283               	bcf	status, 5	;RP0=0, select bank0
  2850  0094  1303               	bcf	status, 6	;RP1=0, select bank0
  2851  0095  00A2               	movwf	(?___ftneg+2)
  2852  0096  120A  158A  2005   	fcall	___ftneg
              120A  118A         
  2853  009B  1283               	bcf	status, 5	;RP0=0, select bank0
  2854  009C  1303               	bcf	status, 6	;RP1=0, select bank0
  2855  009D  0820               	movf	(0+(?___ftneg)),w
  2856  009E  1683               	bsf	status, 5	;RP0=1, select bank1
  2857  009F  1303               	bcf	status, 6	;RP1=0, select bank1
  2858  00A0  00BC               	movwf	(printf@fval)^080h
  2859  00A1  1283               	bcf	status, 5	;RP0=0, select bank0
  2860  00A2  1303               	bcf	status, 6	;RP1=0, select bank0
  2861  00A3  0821               	movf	(1+(?___ftneg)),w
  2862  00A4  1683               	bsf	status, 5	;RP0=1, select bank1
  2863  00A5  1303               	bcf	status, 6	;RP1=0, select bank1
  2864  00A6  00BD               	movwf	(printf@fval+1)^080h
  2865  00A7  1283               	bcf	status, 5	;RP0=0, select bank0
  2866  00A8  1303               	bcf	status, 6	;RP1=0, select bank0
  2867  00A9  0822               	movf	(2+(?___ftneg)),w
  2868  00AA  1683               	bsf	status, 5	;RP0=1, select bank1
  2869  00AB  1303               	bcf	status, 6	;RP1=0, select bank1
  2870  00AC  00BE               	movwf	(printf@fval+2)^080h
  2871                           	line	836
  2872                           	
  2873  00AD                     l6786:	
  2874  00AD  3003               	movlw	low(03h)
  2875  00AE  04AF               	iorwf	(printf@flag)^080h,f
  2876  00AF  3000               	movlw	high(03h)
  2877  00B0  04B0               	iorwf	(printf@flag+1)^080h,f
  2878  00B1  28B2               	goto	l6788
  2879                           	line	837
  2880                           	
  2881  00B2                     l1507:	
  2882                           	line	838
  2883                           	
  2884  00B2                     l6788:	
  2885  00B2  1683               	bsf	status, 5	;RP0=1, select bank1
  2886  00B3  1303               	bcf	status, 6	;RP1=0, select bank1
  2887  00B4  01BA               	clrf	(printf@exp)^080h
  2888  00B5  01BB               	clrf	(printf@exp+1)^080h
  2889                           	line	839
  2890                           	
  2891  00B6                     l6790:	
  2892  00B6  083E               	movf	(printf@fval+2)^080h,w
  2893  00B7  043D               	iorwf	(printf@fval+1)^080h,w
  2894  00B8  043C               	iorwf	(printf@fval)^080h,w
  2895  00B9  1903               	skipnz
  2896  00BA  28BC               	goto	u5791
  2897  00BB  28BD               	goto	u5790
  2898  00BC                     u5791:
  2899  00BC  29E7               	goto	l6816
  2900  00BD                     u5790:
  2901                           	line	840
  2902                           	
  2903  00BD                     l6792:	
  2904  00BD  30BC               	movlw	low(printf@fval)
  2905  00BE  0084               	movwf	fsr0
  2906  00BF  1383               	bcf	status, 7	;select IRP bank1
  2907  00C0  0800               	movf	indf,w
  2908  00C1  00A3               	movwf	(??_printf+0)^080h+0+0
  2909  00C2  0A84               	incf	fsr0,f
  2910  00C3  0800               	movf	indf,w
  2911  00C4  00A4               	movwf	(??_printf+0)^080h+0+1
  2912  00C5  0A84               	incf	fsr0,f
  2913  00C6  0800               	movf	indf,w
  2914  00C7  00A5               	movwf	(??_printf+0)^080h+0+2
  2915  00C8  0A84               	incf	fsr0,f
  2916  00C9  0800               	movf	indf,w
  2917  00CA  00A6               	movwf	(??_printf+0)^080h+0+3
  2918  00CB  300F               	movlw	0Fh
  2919  00CC                     u5805:
  2920  00CC  1003               	clrc
  2921  00CD  0CA6               	rrf	(??_printf+0)^080h+3,f
  2922  00CE  0CA5               	rrf	(??_printf+0)^080h+2,f
  2923  00CF  0CA4               	rrf	(??_printf+0)^080h+1,f
  2924  00D0  0CA3               	rrf	(??_printf+0)^080h+0,f
  2925  00D1                     u5800:
  2926  00D1  3EFF               	addlw	-1
  2927  00D2  1D03               	skipz
  2928  00D3  28CC               	goto	u5805
  2929  00D4  30FF               	movlw	low(0FFh)
  2930  00D5  0523               	andwf	0+(??_printf+0)^080h+0,w
  2931  00D6  00A7               	movwf	(??_printf+4)^080h+0
  2932  00D7  3000               	movlw	high(0FFh)
  2933  00D8  0524               	andwf	1+(??_printf+0)^080h+0,w
  2934  00D9  00A8               	movwf	1+(??_printf+4)^080h+0
  2935  00DA  0827               	movf	0+(??_printf+4)^080h+0,w
  2936  00DB  3E82               	addlw	low(-126)
  2937  00DC  00BA               	movwf	(printf@exp)^080h
  2938  00DD  0828               	movf	1+(??_printf+4)^080h+0,w
  2939  00DE  1803               	skipnc
  2940  00DF  3E01               	addlw	1
  2941  00E0  3EFF               	addlw	high(-126)
  2942  00E1  00BB               	movwf	1+(printf@exp)^080h
  2943                           	line	841
  2944                           	
  2945  00E2                     l6794:	
  2946  00E2  30FF               	movlw	low(-1)
  2947  00E3  07BA               	addwf	(printf@exp)^080h,f
  2948  00E4  1803               	skipnc
  2949  00E5  0ABB               	incf	(printf@exp+1)^080h,f
  2950  00E6  30FF               	movlw	high(-1)
  2951  00E7  07BB               	addwf	(printf@exp+1)^080h,f
  2952                           	line	842
  2953                           	
  2954  00E8                     l6796:	
  2955  00E8  3003               	movlw	low(03h)
  2956  00E9  1283               	bcf	status, 5	;RP0=0, select bank0
  2957  00EA  1303               	bcf	status, 6	;RP1=0, select bank0
  2958  00EB  00A0               	movwf	(?___wmul)
  2959  00EC  3000               	movlw	high(03h)
  2960  00ED  00A1               	movwf	((?___wmul))+1
  2961  00EE  1683               	bsf	status, 5	;RP0=1, select bank1
  2962  00EF  1303               	bcf	status, 6	;RP1=0, select bank1
  2963  00F0  083B               	movf	(printf@exp+1)^080h,w
  2964  00F1  1283               	bcf	status, 5	;RP0=0, select bank0
  2965  00F2  1303               	bcf	status, 6	;RP1=0, select bank0
  2966  00F3  01A3               	clrf	1+(?___wmul)+02h
  2967  00F4  07A3               	addwf	1+(?___wmul)+02h
  2968  00F5  1683               	bsf	status, 5	;RP0=1, select bank1
  2969  00F6  1303               	bcf	status, 6	;RP1=0, select bank1
  2970  00F7  083A               	movf	(printf@exp)^080h,w
  2971  00F8  1283               	bcf	status, 5	;RP0=0, select bank0
  2972  00F9  1303               	bcf	status, 6	;RP1=0, select bank0
  2973  00FA  01A2               	clrf	0+(?___wmul)+02h
  2974  00FB  07A2               	addwf	0+(?___wmul)+02h
  2975                           
  2976  00FC  160A  158A  270E   	fcall	___wmul
              120A  118A         
  2977  0101  1283               	bcf	status, 5	;RP0=0, select bank0
  2978  0102  1303               	bcf	status, 6	;RP1=0, select bank0
  2979  0103  0821               	movf	(1+(?___wmul)),w
  2980  0104  1683               	bsf	status, 5	;RP0=1, select bank1
  2981  0105  1303               	bcf	status, 6	;RP1=0, select bank1
  2982  0106  01BB               	clrf	(printf@exp+1)^080h
  2983  0107  07BB               	addwf	(printf@exp+1)^080h
  2984  0108  1283               	bcf	status, 5	;RP0=0, select bank0
  2985  0109  1303               	bcf	status, 6	;RP1=0, select bank0
  2986  010A  0820               	movf	(0+(?___wmul)),w
  2987  010B  1683               	bsf	status, 5	;RP0=1, select bank1
  2988  010C  1303               	bcf	status, 6	;RP1=0, select bank1
  2989  010D  01BA               	clrf	(printf@exp)^080h
  2990  010E  07BA               	addwf	(printf@exp)^080h
  2991                           
  2992                           	line	843
  2993                           	
  2994  010F                     l6798:	
  2995  010F  300A               	movlw	low(0Ah)
  2996  0110  1283               	bcf	status, 5	;RP0=0, select bank0
  2997  0111  1303               	bcf	status, 6	;RP1=0, select bank0
  2998  0112  00A7               	movwf	(?___awdiv)
  2999  0113  3000               	movlw	high(0Ah)
  3000  0114  00A8               	movwf	((?___awdiv))+1
  3001  0115  1683               	bsf	status, 5	;RP0=1, select bank1
  3002  0116  1303               	bcf	status, 6	;RP1=0, select bank1
  3003  0117  083B               	movf	(printf@exp+1)^080h,w
  3004  0118  1283               	bcf	status, 5	;RP0=0, select bank0
  3005  0119  1303               	bcf	status, 6	;RP1=0, select bank0
  3006  011A  01AA               	clrf	1+(?___awdiv)+02h
  3007  011B  07AA               	addwf	1+(?___awdiv)+02h
  3008  011C  1683               	bsf	status, 5	;RP0=1, select bank1
  3009  011D  1303               	bcf	status, 6	;RP1=0, select bank1
  3010  011E  083A               	movf	(printf@exp)^080h,w
  3011  011F  1283               	bcf	status, 5	;RP0=0, select bank0
  3012  0120  1303               	bcf	status, 6	;RP1=0, select bank0
  3013  0121  01A9               	clrf	0+(?___awdiv)+02h
  3014  0122  07A9               	addwf	0+(?___awdiv)+02h
  3015                           
  3016  0123  160A  118A  21DA   	fcall	___awdiv
              120A  118A         
  3017  0128  1283               	bcf	status, 5	;RP0=0, select bank0
  3018  0129  1303               	bcf	status, 6	;RP1=0, select bank0
  3019  012A  0828               	movf	(1+(?___awdiv)),w
  3020  012B  1683               	bsf	status, 5	;RP0=1, select bank1
  3021  012C  1303               	bcf	status, 6	;RP1=0, select bank1
  3022  012D  01BB               	clrf	(printf@exp+1)^080h
  3023  012E  07BB               	addwf	(printf@exp+1)^080h
  3024  012F  1283               	bcf	status, 5	;RP0=0, select bank0
  3025  0130  1303               	bcf	status, 6	;RP1=0, select bank0
  3026  0131  0827               	movf	(0+(?___awdiv)),w
  3027  0132  1683               	bsf	status, 5	;RP0=1, select bank1
  3028  0133  1303               	bcf	status, 6	;RP1=0, select bank1
  3029  0134  01BA               	clrf	(printf@exp)^080h
  3030  0135  07BA               	addwf	(printf@exp)^080h
  3031                           
  3032                           	line	844
  3033                           	
  3034  0136                     l6800:	
  3035  0136  1FBB               	btfss	(printf@exp+1)^080h,7
  3036  0137  2939               	goto	u5811
  3037  0138  293A               	goto	u5810
  3038  0139                     u5811:
  3039  0139  2941               	goto	l6804
  3040  013A                     u5810:
  3041                           	line	845
  3042                           	
  3043  013A                     l6802:	
  3044  013A  30FF               	movlw	low(-1)
  3045  013B  07BA               	addwf	(printf@exp)^080h,f
  3046  013C  1803               	skipnc
  3047  013D  0ABB               	incf	(printf@exp+1)^080h,f
  3048  013E  30FF               	movlw	high(-1)
  3049  013F  07BB               	addwf	(printf@exp+1)^080h,f
  3050  0140  2941               	goto	l6804
  3051                           	
  3052  0141                     l1509:	
  3053                           	line	849
  3054                           	
  3055  0141                     l6804:	
  3056  0141  033A               	decf	(printf@exp)^080h,w
  3057  0142  3AFF               	xorlw	0ffh
  3058  0143  120A  158A  2529   	fcall	_scale
              120A  118A         
  3059  0148  1283               	bcf	status, 5	;RP0=0, select bank0
  3060  0149  1303               	bcf	status, 6	;RP1=0, select bank0
  3061  014A  0852               	movf	(0+(?_scale)),w
  3062  014B  1683               	bsf	status, 5	;RP0=1, select bank1
  3063  014C  1303               	bcf	status, 6	;RP1=0, select bank1
  3064  014D  00B7               	movwf	(printf@integ)^080h
  3065  014E  1283               	bcf	status, 5	;RP0=0, select bank0
  3066  014F  1303               	bcf	status, 6	;RP1=0, select bank0
  3067  0150  0853               	movf	(1+(?_scale)),w
  3068  0151  1683               	bsf	status, 5	;RP0=1, select bank1
  3069  0152  1303               	bcf	status, 6	;RP1=0, select bank1
  3070  0153  00B8               	movwf	(printf@integ+1)^080h
  3071  0154  1283               	bcf	status, 5	;RP0=0, select bank0
  3072  0155  1303               	bcf	status, 6	;RP1=0, select bank0
  3073  0156  0854               	movf	(2+(?_scale)),w
  3074  0157  1683               	bsf	status, 5	;RP0=1, select bank1
  3075  0158  1303               	bcf	status, 6	;RP1=0, select bank1
  3076  0159  00B9               	movwf	(printf@integ+2)^080h
  3077                           	line	850
  3078                           	
  3079  015A                     l6806:	
  3080  015A  083C               	movf	(printf@fval)^080h,w
  3081  015B  1283               	bcf	status, 5	;RP0=0, select bank0
  3082  015C  1303               	bcf	status, 6	;RP1=0, select bank0
  3083  015D  00C2               	movwf	(?___ftmul)
  3084  015E  1683               	bsf	status, 5	;RP0=1, select bank1
  3085  015F  1303               	bcf	status, 6	;RP1=0, select bank1
  3086  0160  083D               	movf	(printf@fval+1)^080h,w
  3087  0161  1283               	bcf	status, 5	;RP0=0, select bank0
  3088  0162  1303               	bcf	status, 6	;RP1=0, select bank0
  3089  0163  00C3               	movwf	(?___ftmul+1)
  3090  0164  1683               	bsf	status, 5	;RP0=1, select bank1
  3091  0165  1303               	bcf	status, 6	;RP1=0, select bank1
  3092  0166  083E               	movf	(printf@fval+2)^080h,w
  3093  0167  1283               	bcf	status, 5	;RP0=0, select bank0
  3094  0168  1303               	bcf	status, 6	;RP1=0, select bank0
  3095  0169  00C4               	movwf	(?___ftmul+2)
  3096  016A  1683               	bsf	status, 5	;RP0=1, select bank1
  3097  016B  1303               	bcf	status, 6	;RP1=0, select bank1
  3098  016C  0837               	movf	(printf@integ)^080h,w
  3099  016D  1283               	bcf	status, 5	;RP0=0, select bank0
  3100  016E  1303               	bcf	status, 6	;RP1=0, select bank0
  3101  016F  00C5               	movwf	0+(?___ftmul)+03h
  3102  0170  1683               	bsf	status, 5	;RP0=1, select bank1
  3103  0171  1303               	bcf	status, 6	;RP1=0, select bank1
  3104  0172  0838               	movf	(printf@integ+1)^080h,w
  3105  0173  1283               	bcf	status, 5	;RP0=0, select bank0
  3106  0174  1303               	bcf	status, 6	;RP1=0, select bank0
  3107  0175  00C6               	movwf	1+(?___ftmul)+03h
  3108  0176  1683               	bsf	status, 5	;RP0=1, select bank1
  3109  0177  1303               	bcf	status, 6	;RP1=0, select bank1
  3110  0178  0839               	movf	(printf@integ+2)^080h,w
  3111  0179  1283               	bcf	status, 5	;RP0=0, select bank0
  3112  017A  1303               	bcf	status, 6	;RP1=0, select bank0
  3113  017B  00C7               	movwf	2+(?___ftmul)+03h
  3114  017C  160A  118A  2477   	fcall	___ftmul
              120A  118A         
  3115  0181  1283               	bcf	status, 5	;RP0=0, select bank0
  3116  0182  1303               	bcf	status, 6	;RP1=0, select bank0
  3117  0183  0842               	movf	(0+(?___ftmul)),w
  3118  0184  1683               	bsf	status, 5	;RP0=1, select bank1
  3119  0185  1303               	bcf	status, 6	;RP1=0, select bank1
  3120  0186  00B7               	movwf	(printf@integ)^080h
  3121  0187  1283               	bcf	status, 5	;RP0=0, select bank0
  3122  0188  1303               	bcf	status, 6	;RP1=0, select bank0
  3123  0189  0843               	movf	(1+(?___ftmul)),w
  3124  018A  1683               	bsf	status, 5	;RP0=1, select bank1
  3125  018B  1303               	bcf	status, 6	;RP1=0, select bank1
  3126  018C  00B8               	movwf	(printf@integ+1)^080h
  3127  018D  1283               	bcf	status, 5	;RP0=0, select bank0
  3128  018E  1303               	bcf	status, 6	;RP1=0, select bank0
  3129  018F  0844               	movf	(2+(?___ftmul)),w
  3130  0190  1683               	bsf	status, 5	;RP0=1, select bank1
  3131  0191  1303               	bcf	status, 6	;RP1=0, select bank1
  3132  0192  00B9               	movwf	(printf@integ+2)^080h
  3133                           	line	851
  3134                           	
  3135  0193                     l6808:	
  3136  0193  0837               	movf	(printf@integ)^080h,w
  3137  0194  1283               	bcf	status, 5	;RP0=0, select bank0
  3138  0195  1303               	bcf	status, 6	;RP1=0, select bank0
  3139  0196  00A0               	movwf	(?___ftge)
  3140  0197  1683               	bsf	status, 5	;RP0=1, select bank1
  3141  0198  1303               	bcf	status, 6	;RP1=0, select bank1
  3142  0199  0838               	movf	(printf@integ+1)^080h,w
  3143  019A  1283               	bcf	status, 5	;RP0=0, select bank0
  3144  019B  1303               	bcf	status, 6	;RP1=0, select bank0
  3145  019C  00A1               	movwf	(?___ftge+1)
  3146  019D  1683               	bsf	status, 5	;RP0=1, select bank1
  3147  019E  1303               	bcf	status, 6	;RP1=0, select bank1
  3148  019F  0839               	movf	(printf@integ+2)^080h,w
  3149  01A0  1283               	bcf	status, 5	;RP0=0, select bank0
  3150  01A1  1303               	bcf	status, 6	;RP1=0, select bank0
  3151  01A2  00A2               	movwf	(?___ftge+2)
  3152  01A3  3000               	movlw	0x0
  3153  01A4  00A3               	movwf	0+(?___ftge)+03h
  3154  01A5  3080               	movlw	0x80
  3155  01A6  00A4               	movwf	1+(?___ftge)+03h
  3156  01A7  303F               	movlw	0x3f
  3157  01A8  00A5               	movwf	2+(?___ftge)+03h
  3158  01A9  160A  118A  20FC   	fcall	___ftge
              120A  118A         
  3159  01AE  1803               	btfsc	status,0
  3160  01AF  29B1               	goto	u5821
  3161  01B0  29B2               	goto	u5820
  3162  01B1                     u5821:
  3163  01B1  29BB               	goto	l6812
  3164  01B2                     u5820:
  3165                           	line	852
  3166                           	
  3167  01B2                     l6810:	
  3168  01B2  30FF               	movlw	low(-1)
  3169  01B3  1683               	bsf	status, 5	;RP0=1, select bank1
  3170  01B4  1303               	bcf	status, 6	;RP1=0, select bank1
  3171  01B5  07BA               	addwf	(printf@exp)^080h,f
  3172  01B6  1803               	skipnc
  3173  01B7  0ABB               	incf	(printf@exp+1)^080h,f
  3174  01B8  30FF               	movlw	high(-1)
  3175  01B9  07BB               	addwf	(printf@exp+1)^080h,f
  3176  01BA  29E7               	goto	l6816
  3177                           	line	853
  3178                           	
  3179  01BB                     l1510:	
  3180                           	
  3181  01BB                     l6812:	
  3182  01BB  1683               	bsf	status, 5	;RP0=1, select bank1
  3183  01BC  1303               	bcf	status, 6	;RP1=0, select bank1
  3184  01BD  0837               	movf	(printf@integ)^080h,w
  3185  01BE  1283               	bcf	status, 5	;RP0=0, select bank0
  3186  01BF  1303               	bcf	status, 6	;RP1=0, select bank0
  3187  01C0  00A0               	movwf	(?___ftge)
  3188  01C1  1683               	bsf	status, 5	;RP0=1, select bank1
  3189  01C2  1303               	bcf	status, 6	;RP1=0, select bank1
  3190  01C3  0838               	movf	(printf@integ+1)^080h,w
  3191  01C4  1283               	bcf	status, 5	;RP0=0, select bank0
  3192  01C5  1303               	bcf	status, 6	;RP1=0, select bank0
  3193  01C6  00A1               	movwf	(?___ftge+1)
  3194  01C7  1683               	bsf	status, 5	;RP0=1, select bank1
  3195  01C8  1303               	bcf	status, 6	;RP1=0, select bank1
  3196  01C9  0839               	movf	(printf@integ+2)^080h,w
  3197  01CA  1283               	bcf	status, 5	;RP0=0, select bank0
  3198  01CB  1303               	bcf	status, 6	;RP1=0, select bank0
  3199  01CC  00A2               	movwf	(?___ftge+2)
  3200  01CD  3000               	movlw	0x0
  3201  01CE  00A3               	movwf	0+(?___ftge)+03h
  3202  01CF  3020               	movlw	0x20
  3203  01D0  00A4               	movwf	1+(?___ftge)+03h
  3204  01D1  3041               	movlw	0x41
  3205  01D2  00A5               	movwf	2+(?___ftge)+03h
  3206  01D3  160A  118A  20FC   	fcall	___ftge
              120A  118A         
  3207  01D8  1C03               	btfss	status,0
  3208  01D9  29DB               	goto	u5831
  3209  01DA  29DC               	goto	u5830
  3210  01DB                     u5831:
  3211  01DB  29E7               	goto	l6816
  3212  01DC                     u5830:
  3213                           	line	854
  3214                           	
  3215  01DC                     l6814:	
  3216  01DC  3001               	movlw	low(01h)
  3217  01DD  1683               	bsf	status, 5	;RP0=1, select bank1
  3218  01DE  1303               	bcf	status, 6	;RP1=0, select bank1
  3219  01DF  07BA               	addwf	(printf@exp)^080h,f
  3220  01E0  1803               	skipnc
  3221  01E1  0ABB               	incf	(printf@exp+1)^080h,f
  3222  01E2  3000               	movlw	high(01h)
  3223  01E3  07BB               	addwf	(printf@exp+1)^080h,f
  3224  01E4  29E7               	goto	l6816
  3225                           	
  3226  01E5                     l1512:	
  3227  01E5  29E7               	goto	l6816
  3228                           	line	855
  3229                           	
  3230  01E6                     l1511:	
  3231  01E6  29E7               	goto	l6816
  3232                           	
  3233  01E7                     l1508:	
  3234                           	line	1115
  3235                           	
  3236  01E7                     l6816:	
  3237  01E7  1683               	bsf	status, 5	;RP0=1, select bank1
  3238  01E8  1303               	bcf	status, 6	;RP1=0, select bank1
  3239  01E9  0832               	movf	(printf@prec+1)^080h,w
  3240  01EA  3A80               	xorlw	80h
  3241  01EB  00FF               	movwf	btemp+1
  3242  01EC  3080               	movlw	(high(0Dh))^80h
  3243  01ED  027F               	subwf	btemp+1,w
  3244  01EE  1D03               	skipz
  3245  01EF  29F2               	goto	u5845
  3246  01F0  300D               	movlw	low(0Dh)
  3247  01F1  0231               	subwf	(printf@prec)^080h,w
  3248  01F2                     u5845:
  3249                           
  3250  01F2  1803               	skipnc
  3251  01F3  29F5               	goto	u5841
  3252  01F4  29F6               	goto	u5840
  3253  01F5                     u5841:
  3254  01F5  2A30               	goto	l6820
  3255  01F6                     u5840:
  3256                           	line	1116
  3257                           	
  3258  01F6                     l6818:	
  3259  01F6  1683               	bsf	status, 5	;RP0=1, select bank1
  3260  01F7  1303               	bcf	status, 6	;RP1=0, select bank1
  3261  01F8  0831               	movf	(printf@prec)^080h,w
  3262  01F9  120A  158A  20B9   	fcall	_fround
              120A  118A         
  3263  01FE  1283               	bcf	status, 5	;RP0=0, select bank0
  3264  01FF  1303               	bcf	status, 6	;RP1=0, select bank0
  3265  0200  085F               	movf	(0+(?_fround)),w
  3266  0201  00D2               	movwf	(?___ftadd)
  3267  0202  0860               	movf	(1+(?_fround)),w
  3268  0203  00D3               	movwf	(?___ftadd+1)
  3269  0204  0861               	movf	(2+(?_fround)),w
  3270  0205  00D4               	movwf	(?___ftadd+2)
  3271  0206  1683               	bsf	status, 5	;RP0=1, select bank1
  3272  0207  1303               	bcf	status, 6	;RP1=0, select bank1
  3273  0208  083C               	movf	(printf@fval)^080h,w
  3274  0209  1283               	bcf	status, 5	;RP0=0, select bank0
  3275  020A  1303               	bcf	status, 6	;RP1=0, select bank0
  3276  020B  00D5               	movwf	0+(?___ftadd)+03h
  3277  020C  1683               	bsf	status, 5	;RP0=1, select bank1
  3278  020D  1303               	bcf	status, 6	;RP1=0, select bank1
  3279  020E  083D               	movf	(printf@fval+1)^080h,w
  3280  020F  1283               	bcf	status, 5	;RP0=0, select bank0
  3281  0210  1303               	bcf	status, 6	;RP1=0, select bank0
  3282  0211  00D6               	movwf	1+(?___ftadd)+03h
  3283  0212  1683               	bsf	status, 5	;RP0=1, select bank1
  3284  0213  1303               	bcf	status, 6	;RP1=0, select bank1
  3285  0214  083E               	movf	(printf@fval+2)^080h,w
  3286  0215  1283               	bcf	status, 5	;RP0=0, select bank0
  3287  0216  1303               	bcf	status, 6	;RP1=0, select bank0
  3288  0217  00D7               	movwf	2+(?___ftadd)+03h
  3289  0218  160A  118A  2565   	fcall	___ftadd
              120A  118A         
  3290  021D  1283               	bcf	status, 5	;RP0=0, select bank0
  3291  021E  1303               	bcf	status, 6	;RP1=0, select bank0
  3292  021F  0852               	movf	(0+(?___ftadd)),w
  3293  0220  1683               	bsf	status, 5	;RP0=1, select bank1
  3294  0221  1303               	bcf	status, 6	;RP1=0, select bank1
  3295  0222  00BC               	movwf	(printf@fval)^080h
  3296  0223  1283               	bcf	status, 5	;RP0=0, select bank0
  3297  0224  1303               	bcf	status, 6	;RP1=0, select bank0
  3298  0225  0853               	movf	(1+(?___ftadd)),w
  3299  0226  1683               	bsf	status, 5	;RP0=1, select bank1
  3300  0227  1303               	bcf	status, 6	;RP1=0, select bank1
  3301  0228  00BD               	movwf	(printf@fval+1)^080h
  3302  0229  1283               	bcf	status, 5	;RP0=0, select bank0
  3303  022A  1303               	bcf	status, 6	;RP1=0, select bank0
  3304  022B  0854               	movf	(2+(?___ftadd)),w
  3305  022C  1683               	bsf	status, 5	;RP0=1, select bank1
  3306  022D  1303               	bcf	status, 6	;RP1=0, select bank1
  3307  022E  00BE               	movwf	(printf@fval+2)^080h
  3308  022F  2A30               	goto	l6820
  3309                           	
  3310  0230                     l1513:	
  3311                           	line	1119
  3312                           	
  3313  0230                     l6820:	
  3314  0230  1683               	bsf	status, 5	;RP0=1, select bank1
  3315  0231  1303               	bcf	status, 6	;RP1=0, select bank1
  3316  0232  083B               	movf	(printf@exp+1)^080h,w
  3317  0233  3A80               	xorlw	80h
  3318  0234  00FF               	movwf	btemp+1
  3319  0235  3080               	movlw	(high(0Ah))^80h
  3320  0236  027F               	subwf	btemp+1,w
  3321  0237  1D03               	skipz
  3322  0238  2A3B               	goto	u5855
  3323  0239  300A               	movlw	low(0Ah)
  3324  023A  023A               	subwf	(printf@exp)^080h,w
  3325  023B                     u5855:
  3326                           
  3327  023B  1803               	skipnc
  3328  023C  2A3E               	goto	u5851
  3329  023D  2A3F               	goto	u5850
  3330  023E                     u5851:
  3331  023E  2A77               	goto	l6828
  3332  023F                     u5850:
  3333                           	
  3334  023F                     l6822:	
  3335  023F  1683               	bsf	status, 5	;RP0=1, select bank1
  3336  0240  1303               	bcf	status, 6	;RP1=0, select bank1
  3337  0241  083E               	movf	(printf@fval+2)^080h,w
  3338  0242  043D               	iorwf	(printf@fval+1)^080h,w
  3339  0243  043C               	iorwf	(printf@fval)^080h,w
  3340  0244  1903               	skipnz
  3341  0245  2A47               	goto	u5861
  3342  0246  2A48               	goto	u5860
  3343  0247                     u5861:
  3344  0247  2B52               	goto	l6844
  3345  0248                     u5860:
  3346                           	
  3347  0248                     l6824:	
  3348  0248  083C               	movf	(printf@fval)^080h,w
  3349  0249  1283               	bcf	status, 5	;RP0=0, select bank0
  3350  024A  1303               	bcf	status, 6	;RP1=0, select bank0
  3351  024B  00B4               	movwf	(?___fttol)
  3352  024C  1683               	bsf	status, 5	;RP0=1, select bank1
  3353  024D  1303               	bcf	status, 6	;RP1=0, select bank1
  3354  024E  083D               	movf	(printf@fval+1)^080h,w
  3355  024F  1283               	bcf	status, 5	;RP0=0, select bank0
  3356  0250  1303               	bcf	status, 6	;RP1=0, select bank0
  3357  0251  00B5               	movwf	(?___fttol+1)
  3358  0252  1683               	bsf	status, 5	;RP0=1, select bank1
  3359  0253  1303               	bcf	status, 6	;RP1=0, select bank1
  3360  0254  083E               	movf	(printf@fval+2)^080h,w
  3361  0255  1283               	bcf	status, 5	;RP0=0, select bank0
  3362  0256  1303               	bcf	status, 6	;RP1=0, select bank0
  3363  0257  00B6               	movwf	(?___fttol+2)
  3364  0258  120A  158A  2013   	fcall	___fttol
              120A  118A         
  3365  025D  1283               	bcf	status, 5	;RP0=0, select bank0
  3366  025E  1303               	bcf	status, 6	;RP1=0, select bank0
  3367  025F  0837               	movf	(3+(?___fttol)),w
  3368  0260  0436               	iorwf	(2+(?___fttol)),w
  3369  0261  0435               	iorwf	(1+(?___fttol)),w
  3370  0262  0434               	iorwf	(0+(?___fttol)),w
  3371  0263  1D03               	skipz
  3372  0264  2A66               	goto	u5871
  3373  0265  2A67               	goto	u5870
  3374  0266                     u5871:
  3375  0266  2B52               	goto	l6844
  3376  0267                     u5870:
  3377                           	
  3378  0267                     l6826:	
  3379  0267  1683               	bsf	status, 5	;RP0=1, select bank1
  3380  0268  1303               	bcf	status, 6	;RP1=0, select bank1
  3381  0269  083B               	movf	(printf@exp+1)^080h,w
  3382  026A  3A80               	xorlw	80h
  3383  026B  00FF               	movwf	btemp+1
  3384  026C  3080               	movlw	(high(02h))^80h
  3385  026D  027F               	subwf	btemp+1,w
  3386  026E  1D03               	skipz
  3387  026F  2A72               	goto	u5885
  3388  0270  3002               	movlw	low(02h)
  3389  0271  023A               	subwf	(printf@exp)^080h,w
  3390  0272                     u5885:
  3391                           
  3392  0272  1C03               	skipc
  3393  0273  2A75               	goto	u5881
  3394  0274  2A76               	goto	u5880
  3395  0275                     u5881:
  3396  0275  2B52               	goto	l6844
  3397  0276                     u5880:
  3398  0276  2A77               	goto	l6828
  3399                           	
  3400  0277                     l1516:	
  3401                           	line	1123
  3402                           	
  3403  0277                     l6828:	
  3404  0277  1683               	bsf	status, 5	;RP0=1, select bank1
  3405  0278  1303               	bcf	status, 6	;RP1=0, select bank1
  3406  0279  0837               	movf	(printf@integ)^080h,w
  3407  027A  1283               	bcf	status, 5	;RP0=0, select bank0
  3408  027B  1303               	bcf	status, 6	;RP1=0, select bank0
  3409  027C  00A0               	movwf	(?___ftge)
  3410  027D  1683               	bsf	status, 5	;RP0=1, select bank1
  3411  027E  1303               	bcf	status, 6	;RP1=0, select bank1
  3412  027F  0838               	movf	(printf@integ+1)^080h,w
  3413  0280  1283               	bcf	status, 5	;RP0=0, select bank0
  3414  0281  1303               	bcf	status, 6	;RP1=0, select bank0
  3415  0282  00A1               	movwf	(?___ftge+1)
  3416  0283  1683               	bsf	status, 5	;RP0=1, select bank1
  3417  0284  1303               	bcf	status, 6	;RP1=0, select bank1
  3418  0285  0839               	movf	(printf@integ+2)^080h,w
  3419  0286  1283               	bcf	status, 5	;RP0=0, select bank0
  3420  0287  1303               	bcf	status, 6	;RP1=0, select bank0
  3421  0288  00A2               	movwf	(?___ftge+2)
  3422  0289  3070               	movlw	0x70
  3423  028A  00A3               	movwf	0+(?___ftge)+03h
  3424  028B  3089               	movlw	0x89
  3425  028C  00A4               	movwf	1+(?___ftge)+03h
  3426  028D  3040               	movlw	0x40
  3427  028E  00A5               	movwf	2+(?___ftge)+03h
  3428  028F  160A  118A  20FC   	fcall	___ftge
              120A  118A         
  3429  0294  1803               	btfsc	status,0
  3430  0295  2A97               	goto	u5891
  3431  0296  2A98               	goto	u5890
  3432  0297                     u5891:
  3433  0297  2AA1               	goto	l6832
  3434  0298                     u5890:
  3435                           	line	1124
  3436                           	
  3437  0298                     l6830:	
  3438  0298  30F7               	movlw	low(-9)
  3439  0299  1683               	bsf	status, 5	;RP0=1, select bank1
  3440  029A  1303               	bcf	status, 6	;RP1=0, select bank1
  3441  029B  07BA               	addwf	(printf@exp)^080h,f
  3442  029C  1803               	skipnc
  3443  029D  0ABB               	incf	(printf@exp+1)^080h,f
  3444  029E  30FF               	movlw	high(-9)
  3445  029F  07BB               	addwf	(printf@exp+1)^080h,f
  3446                           	line	1125
  3447  02A0  2AAA               	goto	l6834
  3448                           	
  3449  02A1                     l1517:	
  3450                           	line	1126
  3451                           	
  3452  02A1                     l6832:	
  3453  02A1  30F8               	movlw	low(-8)
  3454  02A2  1683               	bsf	status, 5	;RP0=1, select bank1
  3455  02A3  1303               	bcf	status, 6	;RP1=0, select bank1
  3456  02A4  07BA               	addwf	(printf@exp)^080h,f
  3457  02A5  1803               	skipnc
  3458  02A6  0ABB               	incf	(printf@exp+1)^080h,f
  3459  02A7  30FF               	movlw	high(-8)
  3460  02A8  07BB               	addwf	(printf@exp+1)^080h,f
  3461  02A9  2AAA               	goto	l6834
  3462                           	line	1127
  3463                           	
  3464  02AA                     l1518:	
  3465                           	line	1128
  3466                           	
  3467  02AA                     l6834:	
  3468  02AA  083A               	movf	(printf@exp)^080h,w
  3469  02AB  120A  158A  2529   	fcall	_scale
              120A  118A         
  3470  02B0  1283               	bcf	status, 5	;RP0=0, select bank0
  3471  02B1  1303               	bcf	status, 6	;RP1=0, select bank0
  3472  02B2  0852               	movf	(0+(?_scale)),w
  3473  02B3  1683               	bsf	status, 5	;RP0=1, select bank1
  3474  02B4  1303               	bcf	status, 6	;RP1=0, select bank1
  3475  02B5  00B7               	movwf	(printf@integ)^080h
  3476  02B6  1283               	bcf	status, 5	;RP0=0, select bank0
  3477  02B7  1303               	bcf	status, 6	;RP1=0, select bank0
  3478  02B8  0853               	movf	(1+(?_scale)),w
  3479  02B9  1683               	bsf	status, 5	;RP0=1, select bank1
  3480  02BA  1303               	bcf	status, 6	;RP1=0, select bank1
  3481  02BB  00B8               	movwf	(printf@integ+1)^080h
  3482  02BC  1283               	bcf	status, 5	;RP0=0, select bank0
  3483  02BD  1303               	bcf	status, 6	;RP1=0, select bank0
  3484  02BE  0854               	movf	(2+(?_scale)),w
  3485  02BF  1683               	bsf	status, 5	;RP0=1, select bank1
  3486  02C0  1303               	bcf	status, 6	;RP1=0, select bank1
  3487  02C1  00B9               	movwf	(printf@integ+2)^080h
  3488                           	line	1129
  3489  02C2  2B03               	goto	l6838
  3490                           	
  3491  02C3                     l6836:	
  3492  02C3  083C               	movf	(printf@fval)^080h,w
  3493  02C4  1283               	bcf	status, 5	;RP0=0, select bank0
  3494  02C5  1303               	bcf	status, 6	;RP1=0, select bank0
  3495  02C6  00A0               	movwf	(?__div_to_l_)
  3496  02C7  1683               	bsf	status, 5	;RP0=1, select bank1
  3497  02C8  1303               	bcf	status, 6	;RP1=0, select bank1
  3498  02C9  083D               	movf	(printf@fval+1)^080h,w
  3499  02CA  1283               	bcf	status, 5	;RP0=0, select bank0
  3500  02CB  1303               	bcf	status, 6	;RP1=0, select bank0
  3501  02CC  00A1               	movwf	(?__div_to_l_+1)
  3502  02CD  1683               	bsf	status, 5	;RP0=1, select bank1
  3503  02CE  1303               	bcf	status, 6	;RP1=0, select bank1
  3504  02CF  083E               	movf	(printf@fval+2)^080h,w
  3505  02D0  1283               	bcf	status, 5	;RP0=0, select bank0
  3506  02D1  1303               	bcf	status, 6	;RP1=0, select bank0
  3507  02D2  00A2               	movwf	(?__div_to_l_+2)
  3508  02D3  1683               	bsf	status, 5	;RP0=1, select bank1
  3509  02D4  1303               	bcf	status, 6	;RP1=0, select bank1
  3510  02D5  0837               	movf	(printf@integ)^080h,w
  3511  02D6  1283               	bcf	status, 5	;RP0=0, select bank0
  3512  02D7  1303               	bcf	status, 6	;RP1=0, select bank0
  3513  02D8  00A3               	movwf	0+(?__div_to_l_)+03h
  3514  02D9  1683               	bsf	status, 5	;RP0=1, select bank1
  3515  02DA  1303               	bcf	status, 6	;RP1=0, select bank1
  3516  02DB  0838               	movf	(printf@integ+1)^080h,w
  3517  02DC  1283               	bcf	status, 5	;RP0=0, select bank0
  3518  02DD  1303               	bcf	status, 6	;RP1=0, select bank0
  3519  02DE  00A4               	movwf	1+(?__div_to_l_)+03h
  3520  02DF  1683               	bsf	status, 5	;RP0=1, select bank1
  3521  02E0  1303               	bcf	status, 6	;RP1=0, select bank1
  3522  02E1  0839               	movf	(printf@integ+2)^080h,w
  3523  02E2  1283               	bcf	status, 5	;RP0=0, select bank0
  3524  02E3  1303               	bcf	status, 6	;RP1=0, select bank0
  3525  02E4  00A5               	movwf	2+(?__div_to_l_)+03h
  3526  02E5  160A  118A  26AB   	fcall	__div_to_l_
              120A  118A         
  3527  02EA  1283               	bcf	status, 5	;RP0=0, select bank0
  3528  02EB  1303               	bcf	status, 6	;RP1=0, select bank0
  3529  02EC  0823               	movf	(3+(?__div_to_l_)),w
  3530  02ED  1683               	bsf	status, 5	;RP0=1, select bank1
  3531  02EE  1303               	bcf	status, 6	;RP1=0, select bank1
  3532  02EF  00AC               	movwf	(_printf$2140+3)^080h
  3533  02F0  1283               	bcf	status, 5	;RP0=0, select bank0
  3534  02F1  1303               	bcf	status, 6	;RP1=0, select bank0
  3535  02F2  0822               	movf	(2+(?__div_to_l_)),w
  3536  02F3  1683               	bsf	status, 5	;RP0=1, select bank1
  3537  02F4  1303               	bcf	status, 6	;RP1=0, select bank1
  3538  02F5  00AB               	movwf	(_printf$2140+2)^080h
  3539  02F6  1283               	bcf	status, 5	;RP0=0, select bank0
  3540  02F7  1303               	bcf	status, 6	;RP1=0, select bank0
  3541  02F8  0821               	movf	(1+(?__div_to_l_)),w
  3542  02F9  1683               	bsf	status, 5	;RP0=1, select bank1
  3543  02FA  1303               	bcf	status, 6	;RP1=0, select bank1
  3544  02FB  00AA               	movwf	(_printf$2140+1)^080h
  3545  02FC  1283               	bcf	status, 5	;RP0=0, select bank0
  3546  02FD  1303               	bcf	status, 6	;RP1=0, select bank0
  3547  02FE  0820               	movf	(0+(?__div_to_l_)),w
  3548  02FF  1683               	bsf	status, 5	;RP0=1, select bank1
  3549  0300  1303               	bcf	status, 6	;RP1=0, select bank1
  3550  0301  00A9               	movwf	(_printf$2140)^080h
  3551                           
  3552  0302  2B43               	goto	l6840
  3553                           	
  3554  0303                     l1520:	
  3555                           	
  3556  0303                     l6838:	
  3557  0303  083C               	movf	(printf@fval)^080h,w
  3558  0304  1283               	bcf	status, 5	;RP0=0, select bank0
  3559  0305  1303               	bcf	status, 6	;RP1=0, select bank0
  3560  0306  00A0               	movwf	(?__tdiv_to_l_)
  3561  0307  1683               	bsf	status, 5	;RP0=1, select bank1
  3562  0308  1303               	bcf	status, 6	;RP1=0, select bank1
  3563  0309  083D               	movf	(printf@fval+1)^080h,w
  3564  030A  1283               	bcf	status, 5	;RP0=0, select bank0
  3565  030B  1303               	bcf	status, 6	;RP1=0, select bank0
  3566  030C  00A1               	movwf	(?__tdiv_to_l_+1)
  3567  030D  1683               	bsf	status, 5	;RP0=1, select bank1
  3568  030E  1303               	bcf	status, 6	;RP1=0, select bank1
  3569  030F  083E               	movf	(printf@fval+2)^080h,w
  3570  0310  1283               	bcf	status, 5	;RP0=0, select bank0
  3571  0311  1303               	bcf	status, 6	;RP1=0, select bank0
  3572  0312  00A2               	movwf	(?__tdiv_to_l_+2)
  3573  0313  1683               	bsf	status, 5	;RP0=1, select bank1
  3574  0314  1303               	bcf	status, 6	;RP1=0, select bank1
  3575  0315  0837               	movf	(printf@integ)^080h,w
  3576  0316  1283               	bcf	status, 5	;RP0=0, select bank0
  3577  0317  1303               	bcf	status, 6	;RP1=0, select bank0
  3578  0318  00A3               	movwf	0+(?__tdiv_to_l_)+03h
  3579  0319  1683               	bsf	status, 5	;RP0=1, select bank1
  3580  031A  1303               	bcf	status, 6	;RP1=0, select bank1
  3581  031B  0838               	movf	(printf@integ+1)^080h,w
  3582  031C  1283               	bcf	status, 5	;RP0=0, select bank0
  3583  031D  1303               	bcf	status, 6	;RP1=0, select bank0
  3584  031E  00A4               	movwf	1+(?__tdiv_to_l_)+03h
  3585  031F  1683               	bsf	status, 5	;RP0=1, select bank1
  3586  0320  1303               	bcf	status, 6	;RP1=0, select bank1
  3587  0321  0839               	movf	(printf@integ+2)^080h,w
  3588  0322  1283               	bcf	status, 5	;RP0=0, select bank0
  3589  0323  1303               	bcf	status, 6	;RP1=0, select bank0
  3590  0324  00A5               	movwf	2+(?__tdiv_to_l_)+03h
  3591  0325  160A  118A  2395   	fcall	__tdiv_to_l_
              120A  118A         
  3592  032A  1283               	bcf	status, 5	;RP0=0, select bank0
  3593  032B  1303               	bcf	status, 6	;RP1=0, select bank0
  3594  032C  0823               	movf	(3+(?__tdiv_to_l_)),w
  3595  032D  1683               	bsf	status, 5	;RP0=1, select bank1
  3596  032E  1303               	bcf	status, 6	;RP1=0, select bank1
  3597  032F  00AC               	movwf	(_printf$2140+3)^080h
  3598  0330  1283               	bcf	status, 5	;RP0=0, select bank0
  3599  0331  1303               	bcf	status, 6	;RP1=0, select bank0
  3600  0332  0822               	movf	(2+(?__tdiv_to_l_)),w
  3601  0333  1683               	bsf	status, 5	;RP0=1, select bank1
  3602  0334  1303               	bcf	status, 6	;RP1=0, select bank1
  3603  0335  00AB               	movwf	(_printf$2140+2)^080h
  3604  0336  1283               	bcf	status, 5	;RP0=0, select bank0
  3605  0337  1303               	bcf	status, 6	;RP1=0, select bank0
  3606  0338  0821               	movf	(1+(?__tdiv_to_l_)),w
  3607  0339  1683               	bsf	status, 5	;RP0=1, select bank1
  3608  033A  1303               	bcf	status, 6	;RP1=0, select bank1
  3609  033B  00AA               	movwf	(_printf$2140+1)^080h
  3610  033C  1283               	bcf	status, 5	;RP0=0, select bank0
  3611  033D  1303               	bcf	status, 6	;RP1=0, select bank0
  3612  033E  0820               	movf	(0+(?__tdiv_to_l_)),w
  3613  033F  1683               	bsf	status, 5	;RP0=1, select bank1
  3614  0340  1303               	bcf	status, 6	;RP1=0, select bank1
  3615  0341  00A9               	movwf	(_printf$2140)^080h
  3616                           
  3617  0342  2B43               	goto	l6840
  3618                           	
  3619  0343                     l1522:	
  3620                           	
  3621  0343                     l6840:	
  3622  0343  082C               	movf	(_printf$2140+3)^080h,w
  3623  0344  00B6               	movwf	(printf@_val+3)^080h
  3624  0345  082B               	movf	(_printf$2140+2)^080h,w
  3625  0346  00B5               	movwf	(printf@_val+2)^080h
  3626  0347  082A               	movf	(_printf$2140+1)^080h,w
  3627  0348  00B4               	movwf	(printf@_val+1)^080h
  3628  0349  0829               	movf	(_printf$2140)^080h,w
  3629  034A  00B3               	movwf	(printf@_val)^080h
  3630                           
  3631                           	line	1132
  3632                           	
  3633  034B                     l6842:	
  3634  034B  3000               	movlw	0x0
  3635  034C  00BC               	movwf	(printf@fval)^080h
  3636  034D  3000               	movlw	0x0
  3637  034E  00BD               	movwf	(printf@fval+1)^080h
  3638  034F  3000               	movlw	0x0
  3639  0350  00BE               	movwf	(printf@fval+2)^080h
  3640                           	line	1133
  3641  0351  2BD0               	goto	l6848
  3642                           	
  3643  0352                     l1514:	
  3644                           	line	1134
  3645                           	
  3646  0352                     l6844:	
  3647  0352  1683               	bsf	status, 5	;RP0=1, select bank1
  3648  0353  1303               	bcf	status, 6	;RP1=0, select bank1
  3649  0354  083C               	movf	(printf@fval)^080h,w
  3650  0355  1283               	bcf	status, 5	;RP0=0, select bank0
  3651  0356  1303               	bcf	status, 6	;RP1=0, select bank0
  3652  0357  00B4               	movwf	(?___fttol)
  3653  0358  1683               	bsf	status, 5	;RP0=1, select bank1
  3654  0359  1303               	bcf	status, 6	;RP1=0, select bank1
  3655  035A  083D               	movf	(printf@fval+1)^080h,w
  3656  035B  1283               	bcf	status, 5	;RP0=0, select bank0
  3657  035C  1303               	bcf	status, 6	;RP1=0, select bank0
  3658  035D  00B5               	movwf	(?___fttol+1)
  3659  035E  1683               	bsf	status, 5	;RP0=1, select bank1
  3660  035F  1303               	bcf	status, 6	;RP1=0, select bank1
  3661  0360  083E               	movf	(printf@fval+2)^080h,w
  3662  0361  1283               	bcf	status, 5	;RP0=0, select bank0
  3663  0362  1303               	bcf	status, 6	;RP1=0, select bank0
  3664  0363  00B6               	movwf	(?___fttol+2)
  3665  0364  120A  158A  2013   	fcall	___fttol
              120A  118A         
  3666  0369  1283               	bcf	status, 5	;RP0=0, select bank0
  3667  036A  1303               	bcf	status, 6	;RP1=0, select bank0
  3668  036B  0837               	movf	(3+(?___fttol)),w
  3669  036C  1683               	bsf	status, 5	;RP0=1, select bank1
  3670  036D  1303               	bcf	status, 6	;RP1=0, select bank1
  3671  036E  00B6               	movwf	(printf@_val+3)^080h
  3672  036F  1283               	bcf	status, 5	;RP0=0, select bank0
  3673  0370  1303               	bcf	status, 6	;RP1=0, select bank0
  3674  0371  0836               	movf	(2+(?___fttol)),w
  3675  0372  1683               	bsf	status, 5	;RP0=1, select bank1
  3676  0373  1303               	bcf	status, 6	;RP1=0, select bank1
  3677  0374  00B5               	movwf	(printf@_val+2)^080h
  3678  0375  1283               	bcf	status, 5	;RP0=0, select bank0
  3679  0376  1303               	bcf	status, 6	;RP1=0, select bank0
  3680  0377  0835               	movf	(1+(?___fttol)),w
  3681  0378  1683               	bsf	status, 5	;RP0=1, select bank1
  3682  0379  1303               	bcf	status, 6	;RP1=0, select bank1
  3683  037A  00B4               	movwf	(printf@_val+1)^080h
  3684  037B  1283               	bcf	status, 5	;RP0=0, select bank0
  3685  037C  1303               	bcf	status, 6	;RP1=0, select bank0
  3686  037D  0834               	movf	(0+(?___fttol)),w
  3687  037E  1683               	bsf	status, 5	;RP0=1, select bank1
  3688  037F  1303               	bcf	status, 6	;RP1=0, select bank1
  3689  0380  00B3               	movwf	(printf@_val)^080h
  3690                           
  3691                           	line	1135
  3692  0381  0836               	movf	(printf@_val+3)^080h,w
  3693  0382  1283               	bcf	status, 5	;RP0=0, select bank0
  3694  0383  1303               	bcf	status, 6	;RP1=0, select bank0
  3695  0384  00AB               	movwf	(?___lltoft+3)
  3696  0385  1683               	bsf	status, 5	;RP0=1, select bank1
  3697  0386  1303               	bcf	status, 6	;RP1=0, select bank1
  3698  0387  0835               	movf	(printf@_val+2)^080h,w
  3699  0388  1283               	bcf	status, 5	;RP0=0, select bank0
  3700  0389  1303               	bcf	status, 6	;RP1=0, select bank0
  3701  038A  00AA               	movwf	(?___lltoft+2)
  3702  038B  1683               	bsf	status, 5	;RP0=1, select bank1
  3703  038C  1303               	bcf	status, 6	;RP1=0, select bank1
  3704  038D  0834               	movf	(printf@_val+1)^080h,w
  3705  038E  1283               	bcf	status, 5	;RP0=0, select bank0
  3706  038F  1303               	bcf	status, 6	;RP1=0, select bank0
  3707  0390  00A9               	movwf	(?___lltoft+1)
  3708  0391  1683               	bsf	status, 5	;RP0=1, select bank1
  3709  0392  1303               	bcf	status, 6	;RP1=0, select bank1
  3710  0393  0833               	movf	(printf@_val)^080h,w
  3711  0394  1283               	bcf	status, 5	;RP0=0, select bank0
  3712  0395  1303               	bcf	status, 6	;RP1=0, select bank0
  3713  0396  00A8               	movwf	(?___lltoft)
  3714                           
  3715  0397  120A  118A  27C0   	fcall	___lltoft
              120A  118A         
  3716  039C  1283               	bcf	status, 5	;RP0=0, select bank0
  3717  039D  1303               	bcf	status, 6	;RP1=0, select bank0
  3718  039E  0828               	movf	(0+(?___lltoft)),w
  3719  039F  00DF               	movwf	(?___ftsub)
  3720  03A0  0829               	movf	(1+(?___lltoft)),w
  3721  03A1  00E0               	movwf	(?___ftsub+1)
  3722  03A2  082A               	movf	(2+(?___lltoft)),w
  3723  03A3  00E1               	movwf	(?___ftsub+2)
  3724  03A4  1683               	bsf	status, 5	;RP0=1, select bank1
  3725  03A5  1303               	bcf	status, 6	;RP1=0, select bank1
  3726  03A6  083C               	movf	(printf@fval)^080h,w
  3727  03A7  1283               	bcf	status, 5	;RP0=0, select bank0
  3728  03A8  1303               	bcf	status, 6	;RP1=0, select bank0
  3729  03A9  00E2               	movwf	0+(?___ftsub)+03h
  3730  03AA  1683               	bsf	status, 5	;RP0=1, select bank1
  3731  03AB  1303               	bcf	status, 6	;RP1=0, select bank1
  3732  03AC  083D               	movf	(printf@fval+1)^080h,w
  3733  03AD  1283               	bcf	status, 5	;RP0=0, select bank0
  3734  03AE  1303               	bcf	status, 6	;RP1=0, select bank0
  3735  03AF  00E3               	movwf	1+(?___ftsub)+03h
  3736  03B0  1683               	bsf	status, 5	;RP0=1, select bank1
  3737  03B1  1303               	bcf	status, 6	;RP1=0, select bank1
  3738  03B2  083E               	movf	(printf@fval+2)^080h,w
  3739  03B3  1283               	bcf	status, 5	;RP0=0, select bank0
  3740  03B4  1303               	bcf	status, 6	;RP1=0, select bank0
  3741  03B5  00E4               	movwf	2+(?___ftsub)+03h
  3742  03B6  160A  118A  20DD   	fcall	___ftsub
              120A  118A         
  3743  03BB  1283               	bcf	status, 5	;RP0=0, select bank0
  3744  03BC  1303               	bcf	status, 6	;RP1=0, select bank0
  3745  03BD  085F               	movf	(0+(?___ftsub)),w
  3746  03BE  1683               	bsf	status, 5	;RP0=1, select bank1
  3747  03BF  1303               	bcf	status, 6	;RP1=0, select bank1
  3748  03C0  00BC               	movwf	(printf@fval)^080h
  3749  03C1  1283               	bcf	status, 5	;RP0=0, select bank0
  3750  03C2  1303               	bcf	status, 6	;RP1=0, select bank0
  3751  03C3  0860               	movf	(1+(?___ftsub)),w
  3752  03C4  1683               	bsf	status, 5	;RP0=1, select bank1
  3753  03C5  1303               	bcf	status, 6	;RP1=0, select bank1
  3754  03C6  00BD               	movwf	(printf@fval+1)^080h
  3755  03C7  1283               	bcf	status, 5	;RP0=0, select bank0
  3756  03C8  1303               	bcf	status, 6	;RP1=0, select bank0
  3757  03C9  0861               	movf	(2+(?___ftsub)),w
  3758  03CA  1683               	bsf	status, 5	;RP0=1, select bank1
  3759  03CB  1303               	bcf	status, 6	;RP1=0, select bank1
  3760  03CC  00BE               	movwf	(printf@fval+2)^080h
  3761                           	line	1136
  3762                           	
  3763  03CD                     l6846:	
  3764  03CD  01BA               	clrf	(printf@exp)^080h
  3765  03CE  01BB               	clrf	(printf@exp+1)^080h
  3766  03CF  2BD0               	goto	l6848
  3767                           	line	1137
  3768                           	
  3769  03D0                     l1523:	
  3770                           	line	1139
  3771                           	
  3772  03D0                     l6848:	
  3773  03D0  01BF               	clrf	(printf@c)^080h
  3774  03D1  1403               	bsf	status,0
  3775  03D2  0DBF               	rlf	(printf@c)^080h,f
  3776                           	
  3777  03D3                     l6850:	
  3778  03D3  083F               	movf	(printf@c)^080h,w
  3779  03D4  3A0A               	xorlw	0Ah
  3780  03D5  1D03               	skipz
  3781  03D6  2BD8               	goto	u5901
  3782  03D7  2BD9               	goto	u5900
  3783  03D8                     u5901:
  3784  03D8  2BDB               	goto	l6854
  3785  03D9                     u5900:
  3786  03D9  2C1E               	goto	l6862
  3787                           	
  3788  03DA                     l6852:	
  3789  03DA  2C1E               	goto	l6862
  3790                           	line	1140
  3791                           	
  3792  03DB                     l1524:	
  3793                           	
  3794  03DB                     l6854:	
  3795  03DB  083F               	movf	(printf@c)^080h,w
  3796  03DC  00A3               	movwf	(??_printf+0)^080h+0
  3797  03DD  3001               	movlw	(02h)-1
  3798  03DE                     u5915:
  3799  03DE  1003               	clrc
  3800  03DF  0DA3               	rlf	(??_printf+0)^080h+0,f
  3801  03E0  3EFF               	addlw	-1
  3802  03E1  1D03               	skipz
  3803  03E2  2BDE               	goto	u5915
  3804  03E3  1003               	clrc
  3805  03E4  0D23               	rlf	(??_printf+0)^080h+0,w
  3806  03E5  3E01               	addlw	low((_dpowers-__stringbase))
  3807  03E6  0084               	movwf	fsr0
  3808  03E7  160A  118A  2000   	fcall	stringdir
              120A  118A         
  3809  03EC  00A4               	movwf	((??_printf+1)^080h+0)
  3810  03ED  160A  118A  2000   	fcall	stringdir
              120A  118A         
  3811  03F2  00A5               	movwf	((??_printf+1)^080h+0+1)
  3812  03F3  160A  118A  2000   	fcall	stringdir
              120A  118A         
  3813  03F8  00A6               	movwf	((??_printf+1)^080h+0+2)
  3814  03F9  160A  118A  2000   	fcall	stringdir
              120A  118A         
  3815  03FE  00A7               	movwf	((??_printf+1)^080h+0+3)
  3816  03FF  0827               	movf	3+(??_printf+1)^080h+0,w
  3817  0400  0236               	subwf	(printf@_val+3)^080h,w
  3818  0401  1D03               	skipz
  3819  0402  2C0D               	goto	u5925
  3820  0403  0826               	movf	2+(??_printf+1)^080h+0,w
  3821  0404  0235               	subwf	(printf@_val+2)^080h,w
  3822  0405  1D03               	skipz
  3823  0406  2C0D               	goto	u5925
  3824  0407  0825               	movf	1+(??_printf+1)^080h+0,w
  3825  0408  0234               	subwf	(printf@_val+1)^080h,w
  3826  0409  1D03               	skipz
  3827  040A  2C0D               	goto	u5925
  3828  040B  0824               	movf	0+(??_printf+1)^080h+0,w
  3829  040C  0233               	subwf	(printf@_val)^080h,w
  3830  040D                     u5925:
  3831  040D  1803               	skipnc
  3832  040E  2C10               	goto	u5921
  3833  040F  2C11               	goto	u5920
  3834  0410                     u5921:
  3835  0410  2C13               	goto	l6858
  3836  0411                     u5920:
  3837  0411  2C1E               	goto	l6862
  3838                           	line	1141
  3839                           	
  3840  0412                     l6856:	
  3841  0412  2C1E               	goto	l6862
  3842                           	
  3843  0413                     l1526:	
  3844                           	line	1139
  3845                           	
  3846  0413                     l6858:	
  3847  0413  3001               	movlw	(01h)
  3848  0414  00A3               	movwf	(??_printf+0)^080h+0
  3849  0415  0823               	movf	(??_printf+0)^080h+0,w
  3850  0416  07BF               	addwf	(printf@c)^080h,f
  3851                           	
  3852  0417                     l6860:	
  3853  0417  083F               	movf	(printf@c)^080h,w
  3854  0418  3A0A               	xorlw	0Ah
  3855  0419  1D03               	skipz
  3856  041A  2C1C               	goto	u5931
  3857  041B  2C1D               	goto	u5930
  3858  041C                     u5931:
  3859  041C  2BDB               	goto	l6854
  3860  041D                     u5930:
  3861  041D  2C1E               	goto	l6862
  3862                           	
  3863  041E                     l1525:	
  3864                           	line	1189
  3865                           	
  3866  041E                     l6862:	
  3867  041E  3003               	movlw	low(03h)
  3868  041F  052F               	andwf	(printf@flag)^080h,w
  3869  0420  00A3               	movwf	(??_printf+0)^080h+0
  3870  0421  3000               	movlw	high(03h)
  3871  0422  0530               	andwf	(printf@flag+1)^080h,w
  3872  0423  00A4               	movwf	1+(??_printf+0)^080h+0
  3873  0424  0824               	movf	1+(??_printf+0)^080h+0,w
  3874  0425  0423               	iorwf	0+(??_printf+0)^080h+0,w
  3875  0426  1903               	skipnz
  3876  0427  2C29               	goto	u5941
  3877  0428  2C2A               	goto	u5940
  3878  0429                     u5941:
  3879  0429  2C9A               	goto	l6868
  3880  042A                     u5940:
  3881                           	line	1191
  3882                           	
  3883  042A                     l6864:	
  3884  042A  302D               	movlw	(02Dh)
  3885  042B  160A  158A  26B2   	fcall	_putch
              120A  118A         
  3886  0430  2C9A               	goto	l6868
  3887                           	
  3888  0431                     l1527:	
  3889                           	line	1197
  3890  0431  2C9A               	goto	l6868
  3891                           	
  3892  0432                     l1529:	
  3893                           	line	1201
  3894                           	
  3895  0432                     l6866:	
  3896  0432  3000               	movlw	0
  3897  0433  1283               	bcf	status, 5	;RP0=0, select bank0
  3898  0434  1303               	bcf	status, 6	;RP1=0, select bank0
  3899  0435  00B1               	movwf	(?___llmod+3)
  3900  0436  3000               	movlw	0
  3901  0437  00B0               	movwf	(?___llmod+2)
  3902  0438  3000               	movlw	0
  3903  0439  00AF               	movwf	(?___llmod+1)
  3904  043A  300A               	movlw	0Ah
  3905  043B  00AE               	movwf	(?___llmod)
  3906                           
  3907  043C  1683               	bsf	status, 5	;RP0=1, select bank1
  3908  043D  1303               	bcf	status, 6	;RP1=0, select bank1
  3909  043E  083F               	movf	(printf@c)^080h,w
  3910  043F  00A3               	movwf	(??_printf+0)^080h+0
  3911  0440  3001               	movlw	(02h)-1
  3912  0441                     u5955:
  3913  0441  1003               	clrc
  3914  0442  0DA3               	rlf	(??_printf+0)^080h+0,f
  3915  0443  3EFF               	addlw	-1
  3916  0444  1D03               	skipz
  3917  0445  2C41               	goto	u5955
  3918  0446  1003               	clrc
  3919  0447  0D23               	rlf	(??_printf+0)^080h+0,w
  3920  0448  3E01               	addlw	low((_dpowers-__stringbase))
  3921  0449  0084               	movwf	fsr0
  3922  044A  160A  118A  2000   	fcall	stringdir
              120A  118A         
  3923  044F  1283               	bcf	status, 5	;RP0=0, select bank0
  3924  0450  1303               	bcf	status, 6	;RP1=0, select bank0
  3925  0451  00A0               	movwf	(?___lldiv)
  3926  0452  160A  118A  2000   	fcall	stringdir
              120A  118A         
  3927  0457  00A1               	movwf	(?___lldiv+1)
  3928  0458  160A  118A  2000   	fcall	stringdir
              120A  118A         
  3929  045D  00A2               	movwf	(?___lldiv+2)
  3930  045E  160A  118A  2000   	fcall	stringdir
              120A  118A         
  3931  0463  00A3               	movwf	(?___lldiv+3)
  3932  0464  1683               	bsf	status, 5	;RP0=1, select bank1
  3933  0465  1303               	bcf	status, 6	;RP1=0, select bank1
  3934  0466  0836               	movf	(printf@_val+3)^080h,w
  3935  0467  1283               	bcf	status, 5	;RP0=0, select bank0
  3936  0468  1303               	bcf	status, 6	;RP1=0, select bank0
  3937  0469  00A7               	movwf	3+(?___lldiv)+04h
  3938  046A  1683               	bsf	status, 5	;RP0=1, select bank1
  3939  046B  1303               	bcf	status, 6	;RP1=0, select bank1
  3940  046C  0835               	movf	(printf@_val+2)^080h,w
  3941  046D  1283               	bcf	status, 5	;RP0=0, select bank0
  3942  046E  1303               	bcf	status, 6	;RP1=0, select bank0
  3943  046F  00A6               	movwf	2+(?___lldiv)+04h
  3944  0470  1683               	bsf	status, 5	;RP0=1, select bank1
  3945  0471  1303               	bcf	status, 6	;RP1=0, select bank1
  3946  0472  0834               	movf	(printf@_val+1)^080h,w
  3947  0473  1283               	bcf	status, 5	;RP0=0, select bank0
  3948  0474  1303               	bcf	status, 6	;RP1=0, select bank0
  3949  0475  00A5               	movwf	1+(?___lldiv)+04h
  3950  0476  1683               	bsf	status, 5	;RP0=1, select bank1
  3951  0477  1303               	bcf	status, 6	;RP1=0, select bank1
  3952  0478  0833               	movf	(printf@_val)^080h,w
  3953  0479  1283               	bcf	status, 5	;RP0=0, select bank0
  3954  047A  1303               	bcf	status, 6	;RP1=0, select bank0
  3955  047B  00A4               	movwf	0+(?___lldiv)+04h
  3956                           
  3957  047C  160A  118A  216A   	fcall	___lldiv
              120A  118A         
  3958  0481  1283               	bcf	status, 5	;RP0=0, select bank0
  3959  0482  1303               	bcf	status, 6	;RP1=0, select bank0
  3960  0483  0823               	movf	(3+(?___lldiv)),w
  3961  0484  00B5               	movwf	3+(?___llmod)+04h
  3962  0485  0822               	movf	(2+(?___lldiv)),w
  3963  0486  00B4               	movwf	2+(?___llmod)+04h
  3964  0487  0821               	movf	(1+(?___lldiv)),w
  3965  0488  00B3               	movwf	1+(?___llmod)+04h
  3966  0489  0820               	movf	(0+(?___lldiv)),w
  3967  048A  00B2               	movwf	0+(?___llmod)+04h
  3968                           
  3969  048B  160A  158A  273A   	fcall	___llmod
              120A  118A         
  3970  0490  1283               	bcf	status, 5	;RP0=0, select bank0
  3971  0491  1303               	bcf	status, 6	;RP1=0, select bank0
  3972  0492  082E               	movf	0+(((0+(?___llmod)))),w
  3973  0493  3E30               	addlw	030h
  3974  0494  160A  158A  26B2   	fcall	_putch
              120A  118A         
  3975  0499  2C9A               	goto	l6868
  3976                           	line	1203
  3977                           	
  3978  049A                     l1528:	
  3979                           	line	1197
  3980                           	
  3981  049A                     l6868:	
  3982  049A  30FF               	movlw	(-1)
  3983  049B  1683               	bsf	status, 5	;RP0=1, select bank1
  3984  049C  1303               	bcf	status, 6	;RP1=0, select bank1
  3985  049D  00A3               	movwf	(??_printf+0)^080h+0
  3986  049E  0823               	movf	(??_printf+0)^080h+0,w
  3987  049F  07BF               	addwf	(printf@c)^080h,f
  3988  04A0  083F               	movf	((printf@c)^080h),w
  3989  04A1  3AFF               	xorlw	-1
  3990  04A2  1D03               	skipz
  3991  04A3  2CA5               	goto	u5961
  3992  04A4  2CA6               	goto	u5960
  3993  04A5                     u5961:
  3994  04A5  2C32               	goto	l6866
  3995  04A6                     u5960:
  3996  04A6  2CB7               	goto	l6874
  3997                           	
  3998  04A7                     l1530:	
  3999                           	line	1204
  4000  04A7  2CB7               	goto	l6874
  4001                           	
  4002  04A8                     l1532:	
  4003                           	line	1205
  4004                           	
  4005  04A8                     l6870:	
  4006  04A8  3030               	movlw	(030h)
  4007  04A9  160A  158A  26B2   	fcall	_putch
              120A  118A         
  4008                           	line	1206
  4009                           	
  4010  04AE                     l6872:	
  4011  04AE  30FF               	movlw	low(-1)
  4012  04AF  1683               	bsf	status, 5	;RP0=1, select bank1
  4013  04B0  1303               	bcf	status, 6	;RP1=0, select bank1
  4014  04B1  07BA               	addwf	(printf@exp)^080h,f
  4015  04B2  1803               	skipnc
  4016  04B3  0ABB               	incf	(printf@exp+1)^080h,f
  4017  04B4  30FF               	movlw	high(-1)
  4018  04B5  07BB               	addwf	(printf@exp+1)^080h,f
  4019  04B6  2CB7               	goto	l6874
  4020                           	line	1207
  4021                           	
  4022  04B7                     l1531:	
  4023                           	line	1204
  4024                           	
  4025  04B7                     l6874:	
  4026  04B7  083B               	movf	(printf@exp+1)^080h,w
  4027  04B8  3A80               	xorlw	80h
  4028  04B9  00FF               	movwf	btemp+1
  4029  04BA  3080               	movlw	(high(01h))^80h
  4030  04BB  027F               	subwf	btemp+1,w
  4031  04BC  1D03               	skipz
  4032  04BD  2CC0               	goto	u5975
  4033  04BE  3001               	movlw	low(01h)
  4034  04BF  023A               	subwf	(printf@exp)^080h,w
  4035  04C0                     u5975:
  4036                           
  4037  04C0  1803               	skipnc
  4038  04C1  2CC3               	goto	u5971
  4039  04C2  2CC4               	goto	u5970
  4040  04C3                     u5971:
  4041  04C3  2CA8               	goto	l6870
  4042  04C4                     u5970:
  4043  04C4  2CC5               	goto	l6876
  4044                           	
  4045  04C5                     l1533:	
  4046                           	line	1208
  4047                           	
  4048  04C5                     l6876:	
  4049  04C5  1683               	bsf	status, 5	;RP0=1, select bank1
  4050  04C6  1303               	bcf	status, 6	;RP1=0, select bank1
  4051  04C7  0832               	movf	(printf@prec+1)^080h,w
  4052  04C8  3A80               	xorlw	80h
  4053  04C9  00FF               	movwf	btemp+1
  4054  04CA  3080               	movlw	(high(09h))^80h
  4055  04CB  027F               	subwf	btemp+1,w
  4056  04CC  1D03               	skipz
  4057  04CD  2CD0               	goto	u5985
  4058  04CE  3009               	movlw	low(09h)
  4059  04CF  0231               	subwf	(printf@prec)^080h,w
  4060  04D0                     u5985:
  4061                           
  4062  04D0  1C03               	skipc
  4063  04D1  2CD3               	goto	u5981
  4064  04D2  2CD4               	goto	u5980
  4065  04D3                     u5981:
  4066  04D3  2CDB               	goto	l6880
  4067  04D4                     u5980:
  4068                           	line	1209
  4069                           	
  4070  04D4                     l6878:	
  4071  04D4  3008               	movlw	(08h)
  4072  04D5  1683               	bsf	status, 5	;RP0=1, select bank1
  4073  04D6  1303               	bcf	status, 6	;RP1=0, select bank1
  4074  04D7  00A3               	movwf	(??_printf+0)^080h+0
  4075  04D8  0823               	movf	(??_printf+0)^080h+0,w
  4076  04D9  00BF               	movwf	(printf@c)^080h
  4077  04DA  2CE1               	goto	l1535
  4078                           	line	1210
  4079                           	
  4080  04DB                     l1534:	
  4081                           	line	1211
  4082                           	
  4083  04DB                     l6880:	
  4084  04DB  1683               	bsf	status, 5	;RP0=1, select bank1
  4085  04DC  1303               	bcf	status, 6	;RP1=0, select bank1
  4086  04DD  0831               	movf	(printf@prec)^080h,w
  4087  04DE  00A3               	movwf	(??_printf+0)^080h+0
  4088  04DF  0823               	movf	(??_printf+0)^080h+0,w
  4089  04E0  00BF               	movwf	(printf@c)^080h
  4090                           	
  4091  04E1                     l1535:	
  4092                           	line	1212
  4093  04E1  083F               	movf	(printf@c)^080h,w
  4094  04E2  00A3               	movwf	(??_printf+0)^080h+0
  4095  04E3  01A4               	clrf	(??_printf+0)^080h+0+1
  4096  04E4  1BA3               	btfsc	(??_printf+0)^080h+0,7
  4097  04E5  03A4               	decf	(??_printf+0)^080h+0+1,f
  4098  04E6  0823               	movf	0+(??_printf+0)^080h+0,w
  4099  04E7  02B1               	subwf	(printf@prec)^080h,f
  4100  04E8  0824               	movf	1+(??_printf+0)^080h+0,w
  4101  04E9  1C03               	skipc
  4102  04EA  03B2               	decf	(printf@prec+1)^080h,f
  4103  04EB  02B2               	subwf	(printf@prec+1)^080h,f
  4104                           	line	1216
  4105  04EC  083F               	movf	(printf@c)^080h,w
  4106  04ED  1D03               	skipz
  4107  04EE  2CF0               	goto	u5990
  4108  04EF  2CF7               	goto	l6884
  4109  04F0                     u5990:
  4110                           	line	1218
  4111                           	
  4112  04F0                     l6882:	
  4113  04F0  302E               	movlw	(02Eh)
  4114  04F1  160A  158A  26B2   	fcall	_putch
              120A  118A         
  4115  04F6  2CF7               	goto	l6884
  4116                           	
  4117  04F7                     l1536:	
  4118                           	line	1224
  4119                           	
  4120  04F7                     l6884:	
  4121  04F7  1683               	bsf	status, 5	;RP0=1, select bank1
  4122  04F8  1303               	bcf	status, 6	;RP1=0, select bank1
  4123  04F9  083F               	movf	(printf@c)^080h,w
  4124  04FA  120A  158A  2529   	fcall	_scale
              120A  118A         
  4125  04FF  1283               	bcf	status, 5	;RP0=0, select bank0
  4126  0500  1303               	bcf	status, 6	;RP1=0, select bank0
  4127  0501  0852               	movf	(0+(?_scale)),w
  4128  0502  00C5               	movwf	0+(?___ftmul)+03h
  4129  0503  0853               	movf	(1+(?_scale)),w
  4130  0504  00C6               	movwf	1+(?___ftmul)+03h
  4131  0505  0854               	movf	(2+(?_scale)),w
  4132  0506  00C7               	movwf	2+(?___ftmul)+03h
  4133  0507  1683               	bsf	status, 5	;RP0=1, select bank1
  4134  0508  1303               	bcf	status, 6	;RP1=0, select bank1
  4135  0509  083C               	movf	(printf@fval)^080h,w
  4136  050A  1283               	bcf	status, 5	;RP0=0, select bank0
  4137  050B  1303               	bcf	status, 6	;RP1=0, select bank0
  4138  050C  00C2               	movwf	(?___ftmul)
  4139  050D  1683               	bsf	status, 5	;RP0=1, select bank1
  4140  050E  1303               	bcf	status, 6	;RP1=0, select bank1
  4141  050F  083D               	movf	(printf@fval+1)^080h,w
  4142  0510  1283               	bcf	status, 5	;RP0=0, select bank0
  4143  0511  1303               	bcf	status, 6	;RP1=0, select bank0
  4144  0512  00C3               	movwf	(?___ftmul+1)
  4145  0513  1683               	bsf	status, 5	;RP0=1, select bank1
  4146  0514  1303               	bcf	status, 6	;RP1=0, select bank1
  4147  0515  083E               	movf	(printf@fval+2)^080h,w
  4148  0516  1283               	bcf	status, 5	;RP0=0, select bank0
  4149  0517  1303               	bcf	status, 6	;RP1=0, select bank0
  4150  0518  00C4               	movwf	(?___ftmul+2)
  4151  0519  160A  118A  2477   	fcall	___ftmul
              120A  118A         
  4152  051E  1283               	bcf	status, 5	;RP0=0, select bank0
  4153  051F  1303               	bcf	status, 6	;RP1=0, select bank0
  4154  0520  0842               	movf	(0+(?___ftmul)),w
  4155  0521  00B4               	movwf	(?___fttol)
  4156  0522  0843               	movf	(1+(?___ftmul)),w
  4157  0523  00B5               	movwf	(?___fttol+1)
  4158  0524  0844               	movf	(2+(?___ftmul)),w
  4159  0525  00B6               	movwf	(?___fttol+2)
  4160  0526  120A  158A  2013   	fcall	___fttol
              120A  118A         
  4161  052B  1283               	bcf	status, 5	;RP0=0, select bank0
  4162  052C  1303               	bcf	status, 6	;RP1=0, select bank0
  4163  052D  0837               	movf	(3+(?___fttol)),w
  4164  052E  1683               	bsf	status, 5	;RP0=1, select bank1
  4165  052F  1303               	bcf	status, 6	;RP1=0, select bank1
  4166  0530  00B6               	movwf	(printf@_val+3)^080h
  4167  0531  1283               	bcf	status, 5	;RP0=0, select bank0
  4168  0532  1303               	bcf	status, 6	;RP1=0, select bank0
  4169  0533  0836               	movf	(2+(?___fttol)),w
  4170  0534  1683               	bsf	status, 5	;RP0=1, select bank1
  4171  0535  1303               	bcf	status, 6	;RP1=0, select bank1
  4172  0536  00B5               	movwf	(printf@_val+2)^080h
  4173  0537  1283               	bcf	status, 5	;RP0=0, select bank0
  4174  0538  1303               	bcf	status, 6	;RP1=0, select bank0
  4175  0539  0835               	movf	(1+(?___fttol)),w
  4176  053A  1683               	bsf	status, 5	;RP0=1, select bank1
  4177  053B  1303               	bcf	status, 6	;RP1=0, select bank1
  4178  053C  00B4               	movwf	(printf@_val+1)^080h
  4179  053D  1283               	bcf	status, 5	;RP0=0, select bank0
  4180  053E  1303               	bcf	status, 6	;RP1=0, select bank0
  4181  053F  0834               	movf	(0+(?___fttol)),w
  4182  0540  1683               	bsf	status, 5	;RP0=1, select bank1
  4183  0541  1303               	bcf	status, 6	;RP1=0, select bank1
  4184  0542  00B3               	movwf	(printf@_val)^080h
  4185                           
  4186                           	line	1225
  4187  0543  2E09               	goto	l6888
  4188                           	
  4189  0544                     l1538:	
  4190                           	line	1226
  4191                           	
  4192  0544                     l6886:	
  4193  0544  3000               	movlw	0
  4194  0545  1283               	bcf	status, 5	;RP0=0, select bank0
  4195  0546  1303               	bcf	status, 6	;RP1=0, select bank0
  4196  0547  00B1               	movwf	(?___llmod+3)
  4197  0548  3000               	movlw	0
  4198  0549  00B0               	movwf	(?___llmod+2)
  4199  054A  3000               	movlw	0
  4200  054B  00AF               	movwf	(?___llmod+1)
  4201  054C  300A               	movlw	0Ah
  4202  054D  00AE               	movwf	(?___llmod)
  4203                           
  4204  054E  1683               	bsf	status, 5	;RP0=1, select bank1
  4205  054F  1303               	bcf	status, 6	;RP1=0, select bank1
  4206  0550  083F               	movf	(printf@c)^080h,w
  4207  0551  00A3               	movwf	(??_printf+0)^080h+0
  4208  0552  3001               	movlw	(02h)-1
  4209  0553                     u6005:
  4210  0553  1003               	clrc
  4211  0554  0DA3               	rlf	(??_printf+0)^080h+0,f
  4212  0555  3EFF               	addlw	-1
  4213  0556  1D03               	skipz
  4214  0557  2D53               	goto	u6005
  4215  0558  1003               	clrc
  4216  0559  0D23               	rlf	(??_printf+0)^080h+0,w
  4217  055A  3E01               	addlw	low((_dpowers-__stringbase))
  4218  055B  0084               	movwf	fsr0
  4219  055C  160A  118A  2000   	fcall	stringdir
              120A  118A         
  4220  0561  1283               	bcf	status, 5	;RP0=0, select bank0
  4221  0562  1303               	bcf	status, 6	;RP1=0, select bank0
  4222  0563  00A0               	movwf	(?___lldiv)
  4223  0564  160A  118A  2000   	fcall	stringdir
              120A  118A         
  4224  0569  00A1               	movwf	(?___lldiv+1)
  4225  056A  160A  118A  2000   	fcall	stringdir
              120A  118A         
  4226  056F  00A2               	movwf	(?___lldiv+2)
  4227  0570  160A  118A  2000   	fcall	stringdir
              120A  118A         
  4228  0575  00A3               	movwf	(?___lldiv+3)
  4229  0576  1683               	bsf	status, 5	;RP0=1, select bank1
  4230  0577  1303               	bcf	status, 6	;RP1=0, select bank1
  4231  0578  0836               	movf	(printf@_val+3)^080h,w
  4232  0579  1283               	bcf	status, 5	;RP0=0, select bank0
  4233  057A  1303               	bcf	status, 6	;RP1=0, select bank0
  4234  057B  00A7               	movwf	3+(?___lldiv)+04h
  4235  057C  1683               	bsf	status, 5	;RP0=1, select bank1
  4236  057D  1303               	bcf	status, 6	;RP1=0, select bank1
  4237  057E  0835               	movf	(printf@_val+2)^080h,w
  4238  057F  1283               	bcf	status, 5	;RP0=0, select bank0
  4239  0580  1303               	bcf	status, 6	;RP1=0, select bank0
  4240  0581  00A6               	movwf	2+(?___lldiv)+04h
  4241  0582  1683               	bsf	status, 5	;RP0=1, select bank1
  4242  0583  1303               	bcf	status, 6	;RP1=0, select bank1
  4243  0584  0834               	movf	(printf@_val+1)^080h,w
  4244  0585  1283               	bcf	status, 5	;RP0=0, select bank0
  4245  0586  1303               	bcf	status, 6	;RP1=0, select bank0
  4246  0587  00A5               	movwf	1+(?___lldiv)+04h
  4247  0588  1683               	bsf	status, 5	;RP0=1, select bank1
  4248  0589  1303               	bcf	status, 6	;RP1=0, select bank1
  4249  058A  0833               	movf	(printf@_val)^080h,w
  4250  058B  1283               	bcf	status, 5	;RP0=0, select bank0
  4251  058C  1303               	bcf	status, 6	;RP1=0, select bank0
  4252  058D  00A4               	movwf	0+(?___lldiv)+04h
  4253                           
  4254  058E  160A  118A  216A   	fcall	___lldiv
              120A  118A         
  4255  0593  1283               	bcf	status, 5	;RP0=0, select bank0
  4256  0594  1303               	bcf	status, 6	;RP1=0, select bank0
  4257  0595  0823               	movf	(3+(?___lldiv)),w
  4258  0596  00B5               	movwf	3+(?___llmod)+04h
  4259  0597  0822               	movf	(2+(?___lldiv)),w
  4260  0598  00B4               	movwf	2+(?___llmod)+04h
  4261  0599  0821               	movf	(1+(?___lldiv)),w
  4262  059A  00B3               	movwf	1+(?___llmod)+04h
  4263  059B  0820               	movf	(0+(?___lldiv)),w
  4264  059C  00B2               	movwf	0+(?___llmod)+04h
  4265                           
  4266  059D  160A  158A  273A   	fcall	___llmod
              120A  118A         
  4267  05A2  1283               	bcf	status, 5	;RP0=0, select bank0
  4268  05A3  1303               	bcf	status, 6	;RP1=0, select bank0
  4269  05A4  082E               	movf	0+(((0+(?___llmod)))),w
  4270  05A5  3E30               	addlw	030h
  4271  05A6  160A  158A  26B2   	fcall	_putch
              120A  118A         
  4272                           	line	1227
  4273  05AB  1683               	bsf	status, 5	;RP0=1, select bank1
  4274  05AC  1303               	bcf	status, 6	;RP1=0, select bank1
  4275  05AD  083F               	movf	(printf@c)^080h,w
  4276  05AE  00A3               	movwf	(??_printf+0)^080h+0
  4277  05AF  3001               	movlw	(02h)-1
  4278  05B0                     u6015:
  4279  05B0  1003               	clrc
  4280  05B1  0DA3               	rlf	(??_printf+0)^080h+0,f
  4281  05B2  3EFF               	addlw	-1
  4282  05B3  1D03               	skipz
  4283  05B4  2DB0               	goto	u6015
  4284  05B5  1003               	clrc
  4285  05B6  0D23               	rlf	(??_printf+0)^080h+0,w
  4286  05B7  3E01               	addlw	low((_dpowers-__stringbase))
  4287  05B8  0084               	movwf	fsr0
  4288  05B9  160A  118A  2000   	fcall	stringdir
              120A  118A         
  4289  05BE  1283               	bcf	status, 5	;RP0=0, select bank0
  4290  05BF  1303               	bcf	status, 6	;RP1=0, select bank0
  4291  05C0  00AE               	movwf	(?___llmod)
  4292  05C1  160A  118A  2000   	fcall	stringdir
              120A  118A         
  4293  05C6  00AF               	movwf	(?___llmod+1)
  4294  05C7  160A  118A  2000   	fcall	stringdir
              120A  118A         
  4295  05CC  00B0               	movwf	(?___llmod+2)
  4296  05CD  160A  118A  2000   	fcall	stringdir
              120A  118A         
  4297  05D2  00B1               	movwf	(?___llmod+3)
  4298  05D3  1683               	bsf	status, 5	;RP0=1, select bank1
  4299  05D4  1303               	bcf	status, 6	;RP1=0, select bank1
  4300  05D5  0836               	movf	(printf@_val+3)^080h,w
  4301  05D6  1283               	bcf	status, 5	;RP0=0, select bank0
  4302  05D7  1303               	bcf	status, 6	;RP1=0, select bank0
  4303  05D8  00B5               	movwf	3+(?___llmod)+04h
  4304  05D9  1683               	bsf	status, 5	;RP0=1, select bank1
  4305  05DA  1303               	bcf	status, 6	;RP1=0, select bank1
  4306  05DB  0835               	movf	(printf@_val+2)^080h,w
  4307  05DC  1283               	bcf	status, 5	;RP0=0, select bank0
  4308  05DD  1303               	bcf	status, 6	;RP1=0, select bank0
  4309  05DE  00B4               	movwf	2+(?___llmod)+04h
  4310  05DF  1683               	bsf	status, 5	;RP0=1, select bank1
  4311  05E0  1303               	bcf	status, 6	;RP1=0, select bank1
  4312  05E1  0834               	movf	(printf@_val+1)^080h,w
  4313  05E2  1283               	bcf	status, 5	;RP0=0, select bank0
  4314  05E3  1303               	bcf	status, 6	;RP1=0, select bank0
  4315  05E4  00B3               	movwf	1+(?___llmod)+04h
  4316  05E5  1683               	bsf	status, 5	;RP0=1, select bank1
  4317  05E6  1303               	bcf	status, 6	;RP1=0, select bank1
  4318  05E7  0833               	movf	(printf@_val)^080h,w
  4319  05E8  1283               	bcf	status, 5	;RP0=0, select bank0
  4320  05E9  1303               	bcf	status, 6	;RP1=0, select bank0
  4321  05EA  00B2               	movwf	0+(?___llmod)+04h
  4322                           
  4323  05EB  160A  158A  273A   	fcall	___llmod
              120A  118A         
  4324  05F0  1283               	bcf	status, 5	;RP0=0, select bank0
  4325  05F1  1303               	bcf	status, 6	;RP1=0, select bank0
  4326  05F2  0831               	movf	(3+(?___llmod)),w
  4327  05F3  1683               	bsf	status, 5	;RP0=1, select bank1
  4328  05F4  1303               	bcf	status, 6	;RP1=0, select bank1
  4329  05F5  00B6               	movwf	(printf@_val+3)^080h
  4330  05F6  1283               	bcf	status, 5	;RP0=0, select bank0
  4331  05F7  1303               	bcf	status, 6	;RP1=0, select bank0
  4332  05F8  0830               	movf	(2+(?___llmod)),w
  4333  05F9  1683               	bsf	status, 5	;RP0=1, select bank1
  4334  05FA  1303               	bcf	status, 6	;RP1=0, select bank1
  4335  05FB  00B5               	movwf	(printf@_val+2)^080h
  4336  05FC  1283               	bcf	status, 5	;RP0=0, select bank0
  4337  05FD  1303               	bcf	status, 6	;RP1=0, select bank0
  4338  05FE  082F               	movf	(1+(?___llmod)),w
  4339  05FF  1683               	bsf	status, 5	;RP0=1, select bank1
  4340  0600  1303               	bcf	status, 6	;RP1=0, select bank1
  4341  0601  00B4               	movwf	(printf@_val+1)^080h
  4342  0602  1283               	bcf	status, 5	;RP0=0, select bank0
  4343  0603  1303               	bcf	status, 6	;RP1=0, select bank0
  4344  0604  082E               	movf	(0+(?___llmod)),w
  4345  0605  1683               	bsf	status, 5	;RP0=1, select bank1
  4346  0606  1303               	bcf	status, 6	;RP1=0, select bank1
  4347  0607  00B3               	movwf	(printf@_val)^080h
  4348                           
  4349  0608  2E09               	goto	l6888
  4350                           	line	1228
  4351                           	
  4352  0609                     l1537:	
  4353                           	line	1225
  4354                           	
  4355  0609                     l6888:	
  4356  0609  30FF               	movlw	(-1)
  4357  060A  00A3               	movwf	(??_printf+0)^080h+0
  4358  060B  0823               	movf	(??_printf+0)^080h+0,w
  4359  060C  07BF               	addwf	(printf@c)^080h,f
  4360  060D  083F               	movf	((printf@c)^080h),w
  4361  060E  3AFF               	xorlw	-1
  4362  060F  1D03               	skipz
  4363  0610  2E12               	goto	u6021
  4364  0611  2E13               	goto	u6020
  4365  0612                     u6021:
  4366  0612  2D44               	goto	l6886
  4367  0613                     u6020:
  4368  0613  2E24               	goto	l6894
  4369                           	
  4370  0614                     l1539:	
  4371                           	line	1230
  4372  0614  2E24               	goto	l6894
  4373                           	
  4374  0615                     l1541:	
  4375                           	line	1231
  4376                           	
  4377  0615                     l6890:	
  4378  0615  3030               	movlw	(030h)
  4379  0616  160A  158A  26B2   	fcall	_putch
              120A  118A         
  4380                           	line	1232
  4381                           	
  4382  061B                     l6892:	
  4383  061B  30FF               	movlw	low(-1)
  4384  061C  1683               	bsf	status, 5	;RP0=1, select bank1
  4385  061D  1303               	bcf	status, 6	;RP1=0, select bank1
  4386  061E  07B1               	addwf	(printf@prec)^080h,f
  4387  061F  1803               	skipnc
  4388  0620  0AB2               	incf	(printf@prec+1)^080h,f
  4389  0621  30FF               	movlw	high(-1)
  4390  0622  07B2               	addwf	(printf@prec+1)^080h,f
  4391  0623  2E24               	goto	l6894
  4392                           	line	1233
  4393                           	
  4394  0624                     l1540:	
  4395                           	line	1230
  4396                           	
  4397  0624                     l6894:	
  4398  0624  0832               	movf	((printf@prec+1)^080h),w
  4399  0625  0431               	iorwf	((printf@prec)^080h),w
  4400  0626  1D03               	skipz
  4401  0627  2E29               	goto	u6031
  4402  0628  2E2A               	goto	u6030
  4403  0629                     u6031:
  4404  0629  2E15               	goto	l6890
  4405  062A                     u6030:
  4406  062A  2E40               	goto	l6900
  4407                           	
  4408  062B                     l1542:	
  4409                           	line	1240
  4410  062B  2E40               	goto	l6900
  4411                           	line	1241
  4412                           	
  4413  062C                     l1506:	
  4414                           	line	1433
  4415                           	
  4416  062C                     l6896:	
  4417  062C  3003               	movlw	low(03h)
  4418  062D  052F               	andwf	(printf@flag)^080h,w
  4419  062E  00A3               	movwf	(??_printf+0)^080h+0
  4420  062F  3000               	movlw	high(03h)
  4421  0630  0530               	andwf	(printf@flag+1)^080h,w
  4422  0631  00A4               	movwf	1+(??_printf+0)^080h+0
  4423  0632  0824               	movf	1+(??_printf+0)^080h+0,w
  4424  0633  0423               	iorwf	0+(??_printf+0)^080h+0,w
  4425  0634  1903               	skipnz
  4426  0635  2E37               	goto	u6041
  4427  0636  2E38               	goto	u6040
  4428  0637                     u6041:
  4429  0637  2E40               	goto	l6900
  4430  0638                     u6040:
  4431                           	line	1434
  4432                           	
  4433  0638                     l6898:	
  4434  0638  302D               	movlw	(02Dh)
  4435  0639  160A  158A  26B2   	fcall	_putch
              120A  118A         
  4436  063E  2E40               	goto	l6900
  4437                           	
  4438  063F                     l1543:	
  4439  063F  2E40               	goto	l6900
  4440                           	line	1525
  4441                           	
  4442  0640                     l1497:	
  4443                           	line	540
  4444                           	
  4445  0640                     l6900:	
  4446  0640  3001               	movlw	01h
  4447  0641  1683               	bsf	status, 5	;RP0=1, select bank1
  4448  0642  1303               	bcf	status, 6	;RP1=0, select bank1
  4449  0643  07AE               	addwf	(printf@f)^080h,f
  4450  0644  30FF               	movlw	-01h
  4451  0645  072E               	addwf	(printf@f)^080h,w
  4452  0646  0084               	movwf	fsr0
  4453  0647  160A  118A  2000   	fcall	stringdir
              120A  118A         
  4454  064C  00A3               	movwf	(??_printf+0)^080h+0
  4455  064D  0823               	movf	(??_printf+0)^080h+0,w
  4456  064E  00BF               	movwf	(printf@c)^080h
  4457  064F  08BF               	movf	((printf@c)^080h),f
  4458  0650  1D03               	skipz
  4459  0651  2E53               	goto	u6051
  4460  0652  2E54               	goto	u6050
  4461  0653                     u6051:
  4462  0653  281D               	goto	l6764
  4463  0654                     u6050:
  4464  0654  2E56               	goto	l1545
  4465                           	
  4466  0655                     l1544:	
  4467  0655  2E56               	goto	l1545
  4468                           	line	1527
  4469                           	
  4470  0656                     l1502:	
  4471                           	line	1533
  4472                           ;	Return value of _printf is never used
  4473                           	
  4474  0656                     l1545:	
  4475  0656  0008               	return
  4476                           	opt stack 0
  4477                           GLOBAL	__end_of_printf
  4478  0657                     	__end_of_printf:
  4479 ;; =============== function _printf ends ============
  4480                           
  4481                           	signat	_printf,602
  4482                           	global	___ftsub
  4483                           psect	text761,local,class=CODE,delta=2
  4484                           global __ptext761
  4485  10DD                     __ptext761:
  4486                           
  4487 ;; *************** function ___ftsub *****************
  4488 ;; Defined at:
  4489 ;;		line 17 in file "C:\Program Files (x86)\HI-TECH Software\PICC\9.83\sources\ftsub.c"
  4490 ;; Parameters:    Size  Location     Type
  4491 ;;  f2              3   63[BANK0 ] float 
  4492 ;;  f1              3   66[BANK0 ] float 
  4493 ;; Auto vars:     Size  Location     Type
  4494 ;;		None
  4495 ;; Return value:  Size  Location     Type
  4496 ;;                  3   63[BANK0 ] float 
  4497 ;; Registers used:
  4498 ;;		wreg, status,2, status,0, pclath, cstack
  4499 ;; Tracked objects:
  4500 ;;		On entry : 0/0
  4501 ;;		On exit  : 0/0
  4502 ;;		Unchanged: 0/0
  4503 ;; Data sizes:     COMMON   BANK0   BANK1   BANK3   BANK2
  4504 ;;      Params:         0       6       0       0       0
  4505 ;;      Locals:         0       0       0       0       0
  4506 ;;      Temps:          0       0       0       0       0
  4507 ;;      Totals:         0       6       0       0       0
  4508 ;;Total ram usage:        6 bytes
  4509 ;; Hardware stack levels used:    1
  4510 ;; Hardware stack levels required when called:    3
  4511 ;; This function calls:
  4512 ;;		___ftadd
  4513 ;; This function is called by:
  4514 ;;		_printf
  4515 ;; This function uses a non-reentrant model
  4516 ;;
  4517                           psect	text761
  4518                           	file	"C:\Program Files (x86)\HI-TECH Software\PICC\9.83\sources\ftsub.c"
  4519                           	line	17
  4520                           	global	__size_of___ftsub
  4521  001F                     	__size_of___ftsub	equ	__end_of___ftsub-___ftsub
  4522                           	
  4523  10DD                     ___ftsub:	
  4524                           	opt	stack 3
  4525                           ; Regs used in ___ftsub: [wreg+status,2+status,0+pclath+cstack]
  4526                           	line	18
  4527                           	
  4528  10DD                     l6756:	
  4529  10DD  3080               	movlw	080h
  4530  10DE  1283               	bcf	status, 5	;RP0=0, select bank0
  4531  10DF  1303               	bcf	status, 6	;RP1=0, select bank0
  4532  10E0  06E1               	xorwf	(___ftsub@f2+2),f
  4533                           	line	19
  4534                           	
  4535  10E1                     l6758:	
  4536  10E1  0862               	movf	(___ftsub@f1),w
  4537  10E2  00D2               	movwf	(?___ftadd)
  4538  10E3  0863               	movf	(___ftsub@f1+1),w
  4539  10E4  00D3               	movwf	(?___ftadd+1)
  4540  10E5  0864               	movf	(___ftsub@f1+2),w
  4541  10E6  00D4               	movwf	(?___ftadd+2)
  4542  10E7  085F               	movf	(___ftsub@f2),w
  4543  10E8  00D5               	movwf	0+(?___ftadd)+03h
  4544  10E9  0860               	movf	(___ftsub@f2+1),w
  4545  10EA  00D6               	movwf	1+(?___ftadd)+03h
  4546  10EB  0861               	movf	(___ftsub@f2+2),w
  4547  10EC  00D7               	movwf	2+(?___ftadd)+03h
  4548  10ED  160A  118A  2565   	fcall	___ftadd
              160A  118A         
  4549  10F2  1283               	bcf	status, 5	;RP0=0, select bank0
  4550  10F3  1303               	bcf	status, 6	;RP1=0, select bank0
  4551  10F4  0852               	movf	(0+(?___ftadd)),w
  4552  10F5  00DF               	movwf	(?___ftsub)
  4553  10F6  0853               	movf	(1+(?___ftadd)),w
  4554  10F7  00E0               	movwf	(?___ftsub+1)
  4555  10F8  0854               	movf	(2+(?___ftadd)),w
  4556  10F9  00E1               	movwf	(?___ftsub+2)
  4557  10FA  28FB               	goto	l2315
  4558                           	
  4559  10FB                     l6760:	
  4560                           	line	20
  4561                           	
  4562  10FB                     l2315:	
  4563  10FB  0008               	return
  4564                           	opt stack 0
  4565                           GLOBAL	__end_of___ftsub
  4566  10FC                     	__end_of___ftsub:
  4567 ;; =============== function ___ftsub ends ============
  4568                           
  4569                           	signat	___ftsub,8315
  4570                           	global	_scale
  4571                           psect	text762,local,class=CODE,delta=2
  4572                           global __ptext762
  4573  0D29                     __ptext762:
  4574                           
  4575 ;; *************** function _scale *****************
  4576 ;; Defined at:
  4577 ;;		line 422 in file "C:\Program Files (x86)\HI-TECH Software\PICC\9.83\lib\doprnt.c"
  4578 ;; Parameters:    Size  Location     Type
  4579 ;;  scl             1    wreg     char 
  4580 ;; Auto vars:     Size  Location     Type
  4581 ;;  scl             1   58[BANK0 ] char 
  4582 ;; Return value:  Size  Location     Type
  4583 ;;                  3   50[BANK0 ] char 
  4584 ;; Registers used:
  4585 ;;		wreg, fsr0l, fsr0h, status,2, status,0, pclath, cstack
  4586 ;; Tracked objects:
  4587 ;;		On entry : 0/0
  4588 ;;		On exit  : 0/0
  4589 ;;		Unchanged: 0/0
  4590 ;; Data sizes:     COMMON   BANK0   BANK1   BANK3   BANK2
  4591 ;;      Params:         0       3       0       0       0
  4592 ;;      Locals:         0       4       0       0       0
  4593 ;;      Temps:          0       2       0       0       0
  4594 ;;      Totals:         0       9       0       0       0
  4595 ;;Total ram usage:        9 bytes
  4596 ;; Hardware stack levels used:    1
  4597 ;; Hardware stack levels required when called:    3
  4598 ;; This function calls:
  4599 ;;		___awmod
  4600 ;;		___bmul
  4601 ;;		___awdiv
  4602 ;;		___ftmul
  4603 ;; This function is called by:
  4604 ;;		_printf
  4605 ;; This function uses a non-reentrant model
  4606 ;;
  4607                           psect	text762
  4608                           	file	"C:\Program Files (x86)\HI-TECH Software\PICC\9.83\sources\doprnt.c"
  4609                           	line	422
  4610                           	global	__size_of_scale
  4611  02D7                     	__size_of_scale	equ	__end_of_scale-_scale
  4612                           	
  4613  0D29                     _scale:	
  4614                           	opt	stack 3
  4615                           ; Regs used in _scale: [wreg-fsr0h+status,2+status,0+pclath+cstack]
  4616                           ;scale@scl stored from wreg
  4617                           	line	424
  4618  0D29  1283               	bcf	status, 5	;RP0=0, select bank0
  4619  0D2A  1303               	bcf	status, 6	;RP1=0, select bank0
  4620  0D2B  00DA               	movwf	(scale@scl)
  4621                           	
  4622  0D2C                     l6716:	
  4623  0D2C  1FDA               	btfss	(scale@scl),7
  4624  0D2D  2D2F               	goto	u5711
  4625  0D2E  2D30               	goto	u5710
  4626  0D2F                     u5711:
  4627  0D2F  2E99               	goto	l6738
  4628  0D30                     u5710:
  4629                           	line	425
  4630                           	
  4631  0D30                     l6718:	
  4632  0D30  09DA               	comf	(scale@scl),f
  4633  0D31  0ADA               	incf	(scale@scl),f
  4634                           	line	426
  4635                           	
  4636  0D32                     l6720:	
  4637  0D32  085A               	movf	(scale@scl),w
  4638  0D33  3A80               	xorlw	80h
  4639  0D34  3E12               	addlw	-((06Eh)^80h)
  4640  0D35  1C03               	skipc
  4641  0D36  2D38               	goto	u5721
  4642  0D37  2D39               	goto	u5720
  4643  0D38                     u5721:
  4644  0D38  2DFF               	goto	l6728
  4645  0D39                     u5720:
  4646                           	line	427
  4647                           	
  4648  0D39                     l6722:	
  4649  0D39  3003               	movlw	(03h)
  4650  0D3A  00D5               	movwf	(??_scale+0)+0
  4651  0D3B  0855               	movf	(??_scale+0)+0,w
  4652  0D3C  00B0               	movwf	(?___bmul)
  4653  0D3D  300A               	movlw	low(0Ah)
  4654  0D3E  00A7               	movwf	(?___awdiv)
  4655  0D3F  3000               	movlw	high(0Ah)
  4656  0D40  00A8               	movwf	((?___awdiv))+1
  4657  0D41  085A               	movf	(scale@scl),w
  4658  0D42  00A2               	movwf	0+(?___awmod)+02h
  4659  0D43  01A3               	clrf	1+(?___awmod)+02h
  4660  0D44  1BA2               	btfsc	0+(?___awmod)+02h,7
  4661  0D45  03A3               	decf	1+(?___awmod)+02h,f
  4662  0D46  3064               	movlw	low(064h)
  4663  0D47  00A0               	movwf	(?___awmod)
  4664  0D48  3000               	movlw	high(064h)
  4665  0D49  00A1               	movwf	((?___awmod))+1
  4666  0D4A  160A  158A  2798   	fcall	___awmod
              120A  158A         
  4667  0D4F  1283               	bcf	status, 5	;RP0=0, select bank0
  4668  0D50  1303               	bcf	status, 6	;RP1=0, select bank0
  4669  0D51  0821               	movf	(1+(?___awmod)),w
  4670  0D52  01AA               	clrf	1+(?___awdiv)+02h
  4671  0D53  07AA               	addwf	1+(?___awdiv)+02h
  4672  0D54  0820               	movf	(0+(?___awmod)),w
  4673  0D55  01A9               	clrf	0+(?___awdiv)+02h
  4674  0D56  07A9               	addwf	0+(?___awdiv)+02h
  4675                           
  4676  0D57  160A  118A  21DA   	fcall	___awdiv
              120A  158A         
  4677  0D5C  1283               	bcf	status, 5	;RP0=0, select bank0
  4678  0D5D  1303               	bcf	status, 6	;RP1=0, select bank0
  4679  0D5E  0827               	movf	(0+(?___awdiv)),w
  4680  0D5F  3E09               	addlw	09h
  4681  0D60  160A  158A  26BE   	fcall	___bmul
              120A  158A         
  4682  0D65  3E29               	addlw	low((__npowers_-__stringbase))
  4683  0D66  0084               	movwf	fsr0
  4684  0D67  160A  118A  2000   	fcall	stringdir
              120A  158A         
  4685  0D6C  1283               	bcf	status, 5	;RP0=0, select bank0
  4686  0D6D  1303               	bcf	status, 6	;RP1=0, select bank0
  4687  0D6E  00C2               	movwf	(?___ftmul)
  4688  0D6F  160A  118A  2000   	fcall	stringdir
              120A  158A         
  4689  0D74  00C3               	movwf	(?___ftmul+1)
  4690  0D75  160A  118A  2000   	fcall	stringdir
              120A  158A         
  4691  0D7A  00C4               	movwf	(?___ftmul+2)
  4692  0D7B  3003               	movlw	(03h)
  4693  0D7C  00D6               	movwf	(??_scale+1)+0
  4694  0D7D  0856               	movf	(??_scale+1)+0,w
  4695  0D7E  00B0               	movwf	(?___bmul)
  4696  0D7F  3064               	movlw	low(064h)
  4697  0D80  00A7               	movwf	(?___awdiv)
  4698  0D81  3000               	movlw	high(064h)
  4699  0D82  00A8               	movwf	((?___awdiv))+1
  4700  0D83  085A               	movf	(scale@scl),w
  4701  0D84  00A9               	movwf	0+(?___awdiv)+02h
  4702  0D85  01AA               	clrf	1+(?___awdiv)+02h
  4703  0D86  1BA9               	btfsc	0+(?___awdiv)+02h,7
  4704  0D87  03AA               	decf	1+(?___awdiv)+02h,f
  4705  0D88  160A  118A  21DA   	fcall	___awdiv
              120A  158A         
  4706  0D8D  1283               	bcf	status, 5	;RP0=0, select bank0
  4707  0D8E  1303               	bcf	status, 6	;RP1=0, select bank0
  4708  0D8F  0827               	movf	(0+(?___awdiv)),w
  4709  0D90  3E12               	addlw	012h
  4710  0D91  160A  158A  26BE   	fcall	___bmul
              120A  158A         
  4711  0D96  3E29               	addlw	low((__npowers_-__stringbase))
  4712  0D97  0084               	movwf	fsr0
  4713  0D98  160A  118A  2000   	fcall	stringdir
              120A  158A         
  4714  0D9D  1283               	bcf	status, 5	;RP0=0, select bank0
  4715  0D9E  1303               	bcf	status, 6	;RP1=0, select bank0
  4716  0D9F  00C5               	movwf	0+(?___ftmul)+03h
  4717  0DA0  160A  118A  2000   	fcall	stringdir
              120A  158A         
  4718  0DA5  00C6               	movwf	1+(?___ftmul)+03h
  4719  0DA6  160A  118A  2000   	fcall	stringdir
              120A  158A         
  4720  0DAB  00C7               	movwf	2+(?___ftmul)+03h
  4721  0DAC  160A  118A  2477   	fcall	___ftmul
              120A  158A         
  4722  0DB1  1283               	bcf	status, 5	;RP0=0, select bank0
  4723  0DB2  1303               	bcf	status, 6	;RP1=0, select bank0
  4724  0DB3  0842               	movf	(0+(?___ftmul)),w
  4725  0DB4  00D7               	movwf	(_scale$2939)
  4726  0DB5  0843               	movf	(1+(?___ftmul)),w
  4727  0DB6  00D8               	movwf	(_scale$2939+1)
  4728  0DB7  0844               	movf	(2+(?___ftmul)),w
  4729  0DB8  00D9               	movwf	(_scale$2939+2)
  4730  0DB9  3003               	movlw	(03h)
  4731  0DBA  00D5               	movwf	(??_scale+0)+0
  4732  0DBB  0855               	movf	(??_scale+0)+0,w
  4733  0DBC  00B0               	movwf	(?___bmul)
  4734  0DBD  085A               	movf	(scale@scl),w
  4735  0DBE  00A2               	movwf	0+(?___awmod)+02h
  4736  0DBF  01A3               	clrf	1+(?___awmod)+02h
  4737  0DC0  1BA2               	btfsc	0+(?___awmod)+02h,7
  4738  0DC1  03A3               	decf	1+(?___awmod)+02h,f
  4739  0DC2  300A               	movlw	low(0Ah)
  4740  0DC3  00A0               	movwf	(?___awmod)
  4741  0DC4  3000               	movlw	high(0Ah)
  4742  0DC5  00A1               	movwf	((?___awmod))+1
  4743  0DC6  160A  158A  2798   	fcall	___awmod
              120A  158A         
  4744  0DCB  1283               	bcf	status, 5	;RP0=0, select bank0
  4745  0DCC  1303               	bcf	status, 6	;RP1=0, select bank0
  4746  0DCD  0820               	movf	(0+(?___awmod)),w
  4747  0DCE  160A  158A  26BE   	fcall	___bmul
              120A  158A         
  4748  0DD3  3E29               	addlw	low((__npowers_-__stringbase))
  4749  0DD4  0084               	movwf	fsr0
  4750  0DD5  160A  118A  2000   	fcall	stringdir
              120A  158A         
  4751  0DDA  1283               	bcf	status, 5	;RP0=0, select bank0
  4752  0DDB  1303               	bcf	status, 6	;RP1=0, select bank0
  4753  0DDC  00C2               	movwf	(?___ftmul)
  4754  0DDD  160A  118A  2000   	fcall	stringdir
              120A  158A         
  4755  0DE2  00C3               	movwf	(?___ftmul+1)
  4756  0DE3  160A  118A  2000   	fcall	stringdir
              120A  158A         
  4757  0DE8  00C4               	movwf	(?___ftmul+2)
  4758  0DE9  0857               	movf	(_scale$2939),w
  4759  0DEA  00C5               	movwf	0+(?___ftmul)+03h
  4760  0DEB  0858               	movf	(_scale$2939+1),w
  4761  0DEC  00C6               	movwf	1+(?___ftmul)+03h
  4762  0DED  0859               	movf	(_scale$2939+2),w
  4763  0DEE  00C7               	movwf	2+(?___ftmul)+03h
  4764  0DEF  160A  118A  2477   	fcall	___ftmul
              120A  158A         
  4765  0DF4  1283               	bcf	status, 5	;RP0=0, select bank0
  4766  0DF5  1303               	bcf	status, 6	;RP1=0, select bank0
  4767  0DF6  0842               	movf	(0+(?___ftmul)),w
  4768  0DF7  00D2               	movwf	(?_scale)
  4769  0DF8  0843               	movf	(1+(?___ftmul)),w
  4770  0DF9  00D3               	movwf	(?_scale+1)
  4771  0DFA  0844               	movf	(2+(?___ftmul)),w
  4772  0DFB  00D4               	movwf	(?_scale+2)
  4773  0DFC  2FFF               	goto	l1489
  4774                           	
  4775  0DFD                     l6724:	
  4776  0DFD  2FFF               	goto	l1489
  4777                           	
  4778  0DFE                     l6726:	
  4779  0DFE  2E77               	goto	l6734
  4780                           	line	428
  4781                           	
  4782  0DFF                     l1488:	
  4783                           	
  4784  0DFF                     l6728:	
  4785  0DFF  085A               	movf	(scale@scl),w
  4786  0E00  3A80               	xorlw	80h
  4787  0E01  3E75               	addlw	-((0Bh)^80h)
  4788  0E02  1C03               	skipc
  4789  0E03  2E05               	goto	u5731
  4790  0E04  2E06               	goto	u5730
  4791  0E05                     u5731:
  4792  0E05  2E77               	goto	l6734
  4793  0E06                     u5730:
  4794                           	line	429
  4795                           	
  4796  0E06                     l6730:	
  4797  0E06  3003               	movlw	(03h)
  4798  0E07  00D5               	movwf	(??_scale+0)+0
  4799  0E08  0855               	movf	(??_scale+0)+0,w
  4800  0E09  00B0               	movwf	(?___bmul)
  4801  0E0A  085A               	movf	(scale@scl),w
  4802  0E0B  00A2               	movwf	0+(?___awmod)+02h
  4803  0E0C  01A3               	clrf	1+(?___awmod)+02h
  4804  0E0D  1BA2               	btfsc	0+(?___awmod)+02h,7
  4805  0E0E  03A3               	decf	1+(?___awmod)+02h,f
  4806  0E0F  300A               	movlw	low(0Ah)
  4807  0E10  00A0               	movwf	(?___awmod)
  4808  0E11  3000               	movlw	high(0Ah)
  4809  0E12  00A1               	movwf	((?___awmod))+1
  4810  0E13  160A  158A  2798   	fcall	___awmod
              120A  158A         
  4811  0E18  1283               	bcf	status, 5	;RP0=0, select bank0
  4812  0E19  1303               	bcf	status, 6	;RP1=0, select bank0
  4813  0E1A  0820               	movf	(0+(?___awmod)),w
  4814  0E1B  160A  158A  26BE   	fcall	___bmul
              120A  158A         
  4815  0E20  3E29               	addlw	low((__npowers_-__stringbase))
  4816  0E21  0084               	movwf	fsr0
  4817  0E22  160A  118A  2000   	fcall	stringdir
              120A  158A         
  4818  0E27  1283               	bcf	status, 5	;RP0=0, select bank0
  4819  0E28  1303               	bcf	status, 6	;RP1=0, select bank0
  4820  0E29  00C2               	movwf	(?___ftmul)
  4821  0E2A  160A  118A  2000   	fcall	stringdir
              120A  158A         
  4822  0E2F  00C3               	movwf	(?___ftmul+1)
  4823  0E30  160A  118A  2000   	fcall	stringdir
              120A  158A         
  4824  0E35  00C4               	movwf	(?___ftmul+2)
  4825  0E36  3003               	movlw	(03h)
  4826  0E37  00D6               	movwf	(??_scale+1)+0
  4827  0E38  0856               	movf	(??_scale+1)+0,w
  4828  0E39  00B0               	movwf	(?___bmul)
  4829  0E3A  300A               	movlw	low(0Ah)
  4830  0E3B  00A7               	movwf	(?___awdiv)
  4831  0E3C  3000               	movlw	high(0Ah)
  4832  0E3D  00A8               	movwf	((?___awdiv))+1
  4833  0E3E  085A               	movf	(scale@scl),w
  4834  0E3F  00A9               	movwf	0+(?___awdiv)+02h
  4835  0E40  01AA               	clrf	1+(?___awdiv)+02h
  4836  0E41  1BA9               	btfsc	0+(?___awdiv)+02h,7
  4837  0E42  03AA               	decf	1+(?___awdiv)+02h,f
  4838  0E43  160A  118A  21DA   	fcall	___awdiv
              120A  158A         
  4839  0E48  1283               	bcf	status, 5	;RP0=0, select bank0
  4840  0E49  1303               	bcf	status, 6	;RP1=0, select bank0
  4841  0E4A  0827               	movf	(0+(?___awdiv)),w
  4842  0E4B  3E09               	addlw	09h
  4843  0E4C  160A  158A  26BE   	fcall	___bmul
              120A  158A         
  4844  0E51  3E29               	addlw	low((__npowers_-__stringbase))
  4845  0E52  0084               	movwf	fsr0
  4846  0E53  160A  118A  2000   	fcall	stringdir
              120A  158A         
  4847  0E58  1283               	bcf	status, 5	;RP0=0, select bank0
  4848  0E59  1303               	bcf	status, 6	;RP1=0, select bank0
  4849  0E5A  00C5               	movwf	0+(?___ftmul)+03h
  4850  0E5B  160A  118A  2000   	fcall	stringdir
              120A  158A         
  4851  0E60  00C6               	movwf	1+(?___ftmul)+03h
  4852  0E61  160A  118A  2000   	fcall	stringdir
              120A  158A         
  4853  0E66  00C7               	movwf	2+(?___ftmul)+03h
  4854  0E67  160A  118A  2477   	fcall	___ftmul
              120A  158A         
  4855  0E6C  1283               	bcf	status, 5	;RP0=0, select bank0
  4856  0E6D  1303               	bcf	status, 6	;RP1=0, select bank0
  4857  0E6E  0842               	movf	(0+(?___ftmul)),w
  4858  0E6F  00D2               	movwf	(?_scale)
  4859  0E70  0843               	movf	(1+(?___ftmul)),w
  4860  0E71  00D3               	movwf	(?_scale+1)
  4861  0E72  0844               	movf	(2+(?___ftmul)),w
  4862  0E73  00D4               	movwf	(?_scale+2)
  4863  0E74  2FFF               	goto	l1489
  4864                           	
  4865  0E75                     l6732:	
  4866  0E75  2FFF               	goto	l1489
  4867                           	
  4868  0E76                     l1491:	
  4869  0E76  2E77               	goto	l6734
  4870                           	line	430
  4871                           	
  4872  0E77                     l1490:	
  4873                           	
  4874  0E77                     l6734:	
  4875  0E77  3003               	movlw	(03h)
  4876  0E78  00D5               	movwf	(??_scale+0)+0
  4877  0E79  0855               	movf	(??_scale+0)+0,w
  4878  0E7A  00B0               	movwf	(?___bmul)
  4879  0E7B  085A               	movf	(scale@scl),w
  4880  0E7C  160A  158A  26BE   	fcall	___bmul
              120A  158A         
  4881  0E81  3E29               	addlw	low((__npowers_-__stringbase))
  4882  0E82  0084               	movwf	fsr0
  4883  0E83  160A  118A  2000   	fcall	stringdir
              120A  158A         
  4884  0E88  1283               	bcf	status, 5	;RP0=0, select bank0
  4885  0E89  1303               	bcf	status, 6	;RP1=0, select bank0
  4886  0E8A  00D2               	movwf	(?_scale)
  4887  0E8B  160A  118A  2000   	fcall	stringdir
              120A  158A         
  4888  0E90  00D3               	movwf	(?_scale+1)
  4889  0E91  160A  118A  2000   	fcall	stringdir
              120A  158A         
  4890  0E96  00D4               	movwf	(?_scale+2)
  4891  0E97  2FFF               	goto	l1489
  4892                           	
  4893  0E98                     l6736:	
  4894  0E98  2FFF               	goto	l1489
  4895                           	line	431
  4896                           	
  4897  0E99                     l1487:	
  4898                           	line	432
  4899                           	
  4900  0E99                     l6738:	
  4901  0E99  085A               	movf	(scale@scl),w
  4902  0E9A  3A80               	xorlw	80h
  4903  0E9B  3E12               	addlw	-((06Eh)^80h)
  4904  0E9C  1C03               	skipc
  4905  0E9D  2E9F               	goto	u5741
  4906  0E9E  2EA0               	goto	u5740
  4907  0E9F                     u5741:
  4908  0E9F  2F66               	goto	l6746
  4909  0EA0                     u5740:
  4910                           	line	433
  4911                           	
  4912  0EA0                     l6740:	
  4913  0EA0  3003               	movlw	(03h)
  4914  0EA1  00D5               	movwf	(??_scale+0)+0
  4915  0EA2  0855               	movf	(??_scale+0)+0,w
  4916  0EA3  00B0               	movwf	(?___bmul)
  4917  0EA4  300A               	movlw	low(0Ah)
  4918  0EA5  00A7               	movwf	(?___awdiv)
  4919  0EA6  3000               	movlw	high(0Ah)
  4920  0EA7  00A8               	movwf	((?___awdiv))+1
  4921  0EA8  085A               	movf	(scale@scl),w
  4922  0EA9  00A2               	movwf	0+(?___awmod)+02h
  4923  0EAA  01A3               	clrf	1+(?___awmod)+02h
  4924  0EAB  1BA2               	btfsc	0+(?___awmod)+02h,7
  4925  0EAC  03A3               	decf	1+(?___awmod)+02h,f
  4926  0EAD  3064               	movlw	low(064h)
  4927  0EAE  00A0               	movwf	(?___awmod)
  4928  0EAF  3000               	movlw	high(064h)
  4929  0EB0  00A1               	movwf	((?___awmod))+1
  4930  0EB1  160A  158A  2798   	fcall	___awmod
              120A  158A         
  4931  0EB6  1283               	bcf	status, 5	;RP0=0, select bank0
  4932  0EB7  1303               	bcf	status, 6	;RP1=0, select bank0
  4933  0EB8  0821               	movf	(1+(?___awmod)),w
  4934  0EB9  01AA               	clrf	1+(?___awdiv)+02h
  4935  0EBA  07AA               	addwf	1+(?___awdiv)+02h
  4936  0EBB  0820               	movf	(0+(?___awmod)),w
  4937  0EBC  01A9               	clrf	0+(?___awdiv)+02h
  4938  0EBD  07A9               	addwf	0+(?___awdiv)+02h
  4939                           
  4940  0EBE  160A  118A  21DA   	fcall	___awdiv
              120A  158A         
  4941  0EC3  1283               	bcf	status, 5	;RP0=0, select bank0
  4942  0EC4  1303               	bcf	status, 6	;RP1=0, select bank0
  4943  0EC5  0827               	movf	(0+(?___awdiv)),w
  4944  0EC6  3E09               	addlw	09h
  4945  0EC7  160A  158A  26BE   	fcall	___bmul
              120A  158A         
  4946  0ECC  3E50               	addlw	low((__powers_-__stringbase))
  4947  0ECD  0084               	movwf	fsr0
  4948  0ECE  160A  118A  2000   	fcall	stringdir
              120A  158A         
  4949  0ED3  1283               	bcf	status, 5	;RP0=0, select bank0
  4950  0ED4  1303               	bcf	status, 6	;RP1=0, select bank0
  4951  0ED5  00C2               	movwf	(?___ftmul)
  4952  0ED6  160A  118A  2000   	fcall	stringdir
              120A  158A         
  4953  0EDB  00C3               	movwf	(?___ftmul+1)
  4954  0EDC  160A  118A  2000   	fcall	stringdir
              120A  158A         
  4955  0EE1  00C4               	movwf	(?___ftmul+2)
  4956  0EE2  3003               	movlw	(03h)
  4957  0EE3  00D6               	movwf	(??_scale+1)+0
  4958  0EE4  0856               	movf	(??_scale+1)+0,w
  4959  0EE5  00B0               	movwf	(?___bmul)
  4960  0EE6  3064               	movlw	low(064h)
  4961  0EE7  00A7               	movwf	(?___awdiv)
  4962  0EE8  3000               	movlw	high(064h)
  4963  0EE9  00A8               	movwf	((?___awdiv))+1
  4964  0EEA  085A               	movf	(scale@scl),w
  4965  0EEB  00A9               	movwf	0+(?___awdiv)+02h
  4966  0EEC  01AA               	clrf	1+(?___awdiv)+02h
  4967  0EED  1BA9               	btfsc	0+(?___awdiv)+02h,7
  4968  0EEE  03AA               	decf	1+(?___awdiv)+02h,f
  4969  0EEF  160A  118A  21DA   	fcall	___awdiv
              120A  158A         
  4970  0EF4  1283               	bcf	status, 5	;RP0=0, select bank0
  4971  0EF5  1303               	bcf	status, 6	;RP1=0, select bank0
  4972  0EF6  0827               	movf	(0+(?___awdiv)),w
  4973  0EF7  3E12               	addlw	012h
  4974  0EF8  160A  158A  26BE   	fcall	___bmul
              120A  158A         
  4975  0EFD  3E50               	addlw	low((__powers_-__stringbase))
  4976  0EFE  0084               	movwf	fsr0
  4977  0EFF  160A  118A  2000   	fcall	stringdir
              120A  158A         
  4978  0F04  1283               	bcf	status, 5	;RP0=0, select bank0
  4979  0F05  1303               	bcf	status, 6	;RP1=0, select bank0
  4980  0F06  00C5               	movwf	0+(?___ftmul)+03h
  4981  0F07  160A  118A  2000   	fcall	stringdir
              120A  158A         
  4982  0F0C  00C6               	movwf	1+(?___ftmul)+03h
  4983  0F0D  160A  118A  2000   	fcall	stringdir
              120A  158A         
  4984  0F12  00C7               	movwf	2+(?___ftmul)+03h
  4985  0F13  160A  118A  2477   	fcall	___ftmul
              120A  158A         
  4986  0F18  1283               	bcf	status, 5	;RP0=0, select bank0
  4987  0F19  1303               	bcf	status, 6	;RP1=0, select bank0
  4988  0F1A  0842               	movf	(0+(?___ftmul)),w
  4989  0F1B  00D7               	movwf	(_scale$2939)
  4990  0F1C  0843               	movf	(1+(?___ftmul)),w
  4991  0F1D  00D8               	movwf	(_scale$2939+1)
  4992  0F1E  0844               	movf	(2+(?___ftmul)),w
  4993  0F1F  00D9               	movwf	(_scale$2939+2)
  4994  0F20  3003               	movlw	(03h)
  4995  0F21  00D5               	movwf	(??_scale+0)+0
  4996  0F22  0855               	movf	(??_scale+0)+0,w
  4997  0F23  00B0               	movwf	(?___bmul)
  4998  0F24  085A               	movf	(scale@scl),w
  4999  0F25  00A2               	movwf	0+(?___awmod)+02h
  5000  0F26  01A3               	clrf	1+(?___awmod)+02h
  5001  0F27  1BA2               	btfsc	0+(?___awmod)+02h,7
  5002  0F28  03A3               	decf	1+(?___awmod)+02h,f
  5003  0F29  300A               	movlw	low(0Ah)
  5004  0F2A  00A0               	movwf	(?___awmod)
  5005  0F2B  3000               	movlw	high(0Ah)
  5006  0F2C  00A1               	movwf	((?___awmod))+1
  5007  0F2D  160A  158A  2798   	fcall	___awmod
              120A  158A         
  5008  0F32  1283               	bcf	status, 5	;RP0=0, select bank0
  5009  0F33  1303               	bcf	status, 6	;RP1=0, select bank0
  5010  0F34  0820               	movf	(0+(?___awmod)),w
  5011  0F35  160A  158A  26BE   	fcall	___bmul
              120A  158A         
  5012  0F3A  3E50               	addlw	low((__powers_-__stringbase))
  5013  0F3B  0084               	movwf	fsr0
  5014  0F3C  160A  118A  2000   	fcall	stringdir
              120A  158A         
  5015  0F41  1283               	bcf	status, 5	;RP0=0, select bank0
  5016  0F42  1303               	bcf	status, 6	;RP1=0, select bank0
  5017  0F43  00C2               	movwf	(?___ftmul)
  5018  0F44  160A  118A  2000   	fcall	stringdir
              120A  158A         
  5019  0F49  00C3               	movwf	(?___ftmul+1)
  5020  0F4A  160A  118A  2000   	fcall	stringdir
              120A  158A         
  5021  0F4F  00C4               	movwf	(?___ftmul+2)
  5022  0F50  0857               	movf	(_scale$2939),w
  5023  0F51  00C5               	movwf	0+(?___ftmul)+03h
  5024  0F52  0858               	movf	(_scale$2939+1),w
  5025  0F53  00C6               	movwf	1+(?___ftmul)+03h
  5026  0F54  0859               	movf	(_scale$2939+2),w
  5027  0F55  00C7               	movwf	2+(?___ftmul)+03h
  5028  0F56  160A  118A  2477   	fcall	___ftmul
              120A  158A         
  5029  0F5B  1283               	bcf	status, 5	;RP0=0, select bank0
  5030  0F5C  1303               	bcf	status, 6	;RP1=0, select bank0
  5031  0F5D  0842               	movf	(0+(?___ftmul)),w
  5032  0F5E  00D2               	movwf	(?_scale)
  5033  0F5F  0843               	movf	(1+(?___ftmul)),w
  5034  0F60  00D3               	movwf	(?_scale+1)
  5035  0F61  0844               	movf	(2+(?___ftmul)),w
  5036  0F62  00D4               	movwf	(?_scale+2)
  5037  0F63  2FFF               	goto	l1489
  5038                           	
  5039  0F64                     l6742:	
  5040  0F64  2FFF               	goto	l1489
  5041                           	
  5042  0F65                     l6744:	
  5043  0F65  2FDE               	goto	l6752
  5044                           	line	434
  5045                           	
  5046  0F66                     l1492:	
  5047                           	
  5048  0F66                     l6746:	
  5049  0F66  085A               	movf	(scale@scl),w
  5050  0F67  3A80               	xorlw	80h
  5051  0F68  3E75               	addlw	-((0Bh)^80h)
  5052  0F69  1C03               	skipc
  5053  0F6A  2F6C               	goto	u5751
  5054  0F6B  2F6D               	goto	u5750
  5055  0F6C                     u5751:
  5056  0F6C  2FDE               	goto	l6752
  5057  0F6D                     u5750:
  5058                           	line	435
  5059                           	
  5060  0F6D                     l6748:	
  5061  0F6D  3003               	movlw	(03h)
  5062  0F6E  00D5               	movwf	(??_scale+0)+0
  5063  0F6F  0855               	movf	(??_scale+0)+0,w
  5064  0F70  00B0               	movwf	(?___bmul)
  5065  0F71  085A               	movf	(scale@scl),w
  5066  0F72  00A2               	movwf	0+(?___awmod)+02h
  5067  0F73  01A3               	clrf	1+(?___awmod)+02h
  5068  0F74  1BA2               	btfsc	0+(?___awmod)+02h,7
  5069  0F75  03A3               	decf	1+(?___awmod)+02h,f
  5070  0F76  300A               	movlw	low(0Ah)
  5071  0F77  00A0               	movwf	(?___awmod)
  5072  0F78  3000               	movlw	high(0Ah)
  5073  0F79  00A1               	movwf	((?___awmod))+1
  5074  0F7A  160A  158A  2798   	fcall	___awmod
              120A  158A         
  5075  0F7F  1283               	bcf	status, 5	;RP0=0, select bank0
  5076  0F80  1303               	bcf	status, 6	;RP1=0, select bank0
  5077  0F81  0820               	movf	(0+(?___awmod)),w
  5078  0F82  160A  158A  26BE   	fcall	___bmul
              120A  158A         
  5079  0F87  3E50               	addlw	low((__powers_-__stringbase))
  5080  0F88  0084               	movwf	fsr0
  5081  0F89  160A  118A  2000   	fcall	stringdir
              120A  158A         
  5082  0F8E  1283               	bcf	status, 5	;RP0=0, select bank0
  5083  0F8F  1303               	bcf	status, 6	;RP1=0, select bank0
  5084  0F90  00C2               	movwf	(?___ftmul)
  5085  0F91  160A  118A  2000   	fcall	stringdir
              120A  158A         
  5086  0F96  00C3               	movwf	(?___ftmul+1)
  5087  0F97  160A  118A  2000   	fcall	stringdir
              120A  158A         
  5088  0F9C  00C4               	movwf	(?___ftmul+2)
  5089  0F9D  3003               	movlw	(03h)
  5090  0F9E  00D6               	movwf	(??_scale+1)+0
  5091  0F9F  0856               	movf	(??_scale+1)+0,w
  5092  0FA0  00B0               	movwf	(?___bmul)
  5093  0FA1  300A               	movlw	low(0Ah)
  5094  0FA2  00A7               	movwf	(?___awdiv)
  5095  0FA3  3000               	movlw	high(0Ah)
  5096  0FA4  00A8               	movwf	((?___awdiv))+1
  5097  0FA5  085A               	movf	(scale@scl),w
  5098  0FA6  00A9               	movwf	0+(?___awdiv)+02h
  5099  0FA7  01AA               	clrf	1+(?___awdiv)+02h
  5100  0FA8  1BA9               	btfsc	0+(?___awdiv)+02h,7
  5101  0FA9  03AA               	decf	1+(?___awdiv)+02h,f
  5102  0FAA  160A  118A  21DA   	fcall	___awdiv
              120A  158A         
  5103  0FAF  1283               	bcf	status, 5	;RP0=0, select bank0
  5104  0FB0  1303               	bcf	status, 6	;RP1=0, select bank0
  5105  0FB1  0827               	movf	(0+(?___awdiv)),w
  5106  0FB2  3E09               	addlw	09h
  5107  0FB3  160A  158A  26BE   	fcall	___bmul
              120A  158A         
  5108  0FB8  3E50               	addlw	low((__powers_-__stringbase))
  5109  0FB9  0084               	movwf	fsr0
  5110  0FBA  160A  118A  2000   	fcall	stringdir
              120A  158A         
  5111  0FBF  1283               	bcf	status, 5	;RP0=0, select bank0
  5112  0FC0  1303               	bcf	status, 6	;RP1=0, select bank0
  5113  0FC1  00C5               	movwf	0+(?___ftmul)+03h
  5114  0FC2  160A  118A  2000   	fcall	stringdir
              120A  158A         
  5115  0FC7  00C6               	movwf	1+(?___ftmul)+03h
  5116  0FC8  160A  118A  2000   	fcall	stringdir
              120A  158A         
  5117  0FCD  00C7               	movwf	2+(?___ftmul)+03h
  5118  0FCE  160A  118A  2477   	fcall	___ftmul
              120A  158A         
  5119  0FD3  1283               	bcf	status, 5	;RP0=0, select bank0
  5120  0FD4  1303               	bcf	status, 6	;RP1=0, select bank0
  5121  0FD5  0842               	movf	(0+(?___ftmul)),w
  5122  0FD6  00D2               	movwf	(?_scale)
  5123  0FD7  0843               	movf	(1+(?___ftmul)),w
  5124  0FD8  00D3               	movwf	(?_scale+1)
  5125  0FD9  0844               	movf	(2+(?___ftmul)),w
  5126  0FDA  00D4               	movwf	(?_scale+2)
  5127  0FDB  2FFF               	goto	l1489
  5128                           	
  5129  0FDC                     l6750:	
  5130  0FDC  2FFF               	goto	l1489
  5131                           	
  5132  0FDD                     l1494:	
  5133  0FDD  2FDE               	goto	l6752
  5134                           	line	436
  5135                           	
  5136  0FDE                     l1493:	
  5137                           	
  5138  0FDE                     l6752:	
  5139  0FDE  3003               	movlw	(03h)
  5140  0FDF  00D5               	movwf	(??_scale+0)+0
  5141  0FE0  0855               	movf	(??_scale+0)+0,w
  5142  0FE1  00B0               	movwf	(?___bmul)
  5143  0FE2  085A               	movf	(scale@scl),w
  5144  0FE3  160A  158A  26BE   	fcall	___bmul
              120A  158A         
  5145  0FE8  3E50               	addlw	low((__powers_-__stringbase))
  5146  0FE9  0084               	movwf	fsr0
  5147  0FEA  160A  118A  2000   	fcall	stringdir
              120A  158A         
  5148  0FEF  1283               	bcf	status, 5	;RP0=0, select bank0
  5149  0FF0  1303               	bcf	status, 6	;RP1=0, select bank0
  5150  0FF1  00D2               	movwf	(?_scale)
  5151  0FF2  160A  118A  2000   	fcall	stringdir
              120A  158A         
  5152  0FF7  00D3               	movwf	(?_scale+1)
  5153  0FF8  160A  118A  2000   	fcall	stringdir
              120A  158A         
  5154  0FFD  00D4               	movwf	(?_scale+2)
  5155  0FFE  2FFF               	goto	l1489
  5156                           	
  5157  0FFF                     l6754:	
  5158                           	line	437
  5159                           	
  5160  0FFF                     l1489:	
  5161  0FFF  0008               	return
  5162                           	opt stack 0
  5163                           GLOBAL	__end_of_scale
  5164  1000                     	__end_of_scale:
  5165 ;; =============== function _scale ends ============
  5166                           
  5167                           	signat	_scale,4219
  5168                           	global	_fround
  5169                           psect	text763,local,class=CODE,delta=2
  5170                           global __ptext763
  5171  08B9                     __ptext763:
  5172                           
  5173 ;; *************** function _fround *****************
  5174 ;; Defined at:
  5175 ;;		line 406 in file "C:\Program Files (x86)\HI-TECH Software\PICC\9.83\lib\doprnt.c"
  5176 ;; Parameters:    Size  Location     Type
  5177 ;;  prec            1    wreg     unsigned char 
  5178 ;; Auto vars:     Size  Location     Type
  5179 ;;  prec            1   78[BANK0 ] unsigned char 
  5180 ;; Return value:  Size  Location     Type
  5181 ;;                  3   63[BANK0 ] unsigned char 
  5182 ;; Registers used:
  5183 ;;		wreg, fsr0l, fsr0h, status,2, status,0, pclath, cstack
  5184 ;; Tracked objects:
  5185 ;;		On entry : 0/0
  5186 ;;		On exit  : 0/0
  5187 ;;		Unchanged: 0/0
  5188 ;; Data sizes:     COMMON   BANK0   BANK1   BANK3   BANK2
  5189 ;;      Params:         0       3       0       0       0
  5190 ;;      Locals:         0       7       0       0       0
  5191 ;;      Temps:          0       6       0       0       0
  5192 ;;      Totals:         0      16       0       0       0
  5193 ;;Total ram usage:       16 bytes
  5194 ;; Hardware stack levels used:    1
  5195 ;; Hardware stack levels required when called:    3
  5196 ;; This function calls:
  5197 ;;		___awmod
  5198 ;;		___bmul
  5199 ;;		___awdiv
  5200 ;;		___ftmul
  5201 ;; This function is called by:
  5202 ;;		_printf
  5203 ;; This function uses a non-reentrant model
  5204 ;;
  5205                           psect	text763
  5206                           	file	"C:\Program Files (x86)\HI-TECH Software\PICC\9.83\sources\doprnt.c"
  5207                           	line	406
  5208                           	global	__size_of_fround
  5209  01B7                     	__size_of_fround	equ	__end_of_fround-_fround
  5210                           	
  5211  08B9                     _fround:	
  5212                           	opt	stack 3
  5213                           ; Regs used in _fround: [wreg-fsr0h+status,2+status,0+pclath+cstack]
  5214                           ;fround@prec stored from wreg
  5215                           	line	409
  5216  08B9  1283               	bcf	status, 5	;RP0=0, select bank0
  5217  08BA  1303               	bcf	status, 6	;RP1=0, select bank0
  5218  08BB  00EE               	movwf	(fround@prec)
  5219                           	
  5220  08BC                     l6694:	
  5221  08BC  306E               	movlw	(06Eh)
  5222  08BD  026E               	subwf	(fround@prec),w
  5223  08BE  1C03               	skipc
  5224  08BF  28C1               	goto	u5691
  5225  08C0  28C2               	goto	u5690
  5226  08C1                     u5691:
  5227  08C1  29A7               	goto	l6704
  5228  08C2                     u5690:
  5229                           	line	410
  5230                           	
  5231  08C2                     l6696:	
  5232  08C2  3003               	movlw	(03h)
  5233  08C3  00E2               	movwf	(??_fround+0)+0
  5234  08C4  0862               	movf	(??_fround+0)+0,w
  5235  08C5  00B0               	movwf	(?___bmul)
  5236  08C6  300A               	movlw	low(0Ah)
  5237  08C7  00A7               	movwf	(?___awdiv)
  5238  08C8  3000               	movlw	high(0Ah)
  5239  08C9  00A8               	movwf	((?___awdiv))+1
  5240  08CA  086E               	movf	(fround@prec),w
  5241  08CB  00E3               	movwf	(??_fround+1)+0
  5242  08CC  01E4               	clrf	(??_fround+1)+0+1
  5243  08CD  0863               	movf	0+(??_fround+1)+0,w
  5244  08CE  00A2               	movwf	0+(?___awmod)+02h
  5245  08CF  0864               	movf	1+(??_fround+1)+0,w
  5246  08D0  00A3               	movwf	1+(?___awmod)+02h
  5247  08D1  3064               	movlw	low(064h)
  5248  08D2  00A0               	movwf	(?___awmod)
  5249  08D3  3000               	movlw	high(064h)
  5250  08D4  00A1               	movwf	((?___awmod))+1
  5251  08D5  160A  158A  2798   	fcall	___awmod
              120A  158A         
  5252  08DA  1283               	bcf	status, 5	;RP0=0, select bank0
  5253  08DB  1303               	bcf	status, 6	;RP1=0, select bank0
  5254  08DC  0821               	movf	(1+(?___awmod)),w
  5255  08DD  01AA               	clrf	1+(?___awdiv)+02h
  5256  08DE  07AA               	addwf	1+(?___awdiv)+02h
  5257  08DF  0820               	movf	(0+(?___awmod)),w
  5258  08E0  01A9               	clrf	0+(?___awdiv)+02h
  5259  08E1  07A9               	addwf	0+(?___awdiv)+02h
  5260                           
  5261  08E2  160A  118A  21DA   	fcall	___awdiv
              120A  158A         
  5262  08E7  1283               	bcf	status, 5	;RP0=0, select bank0
  5263  08E8  1303               	bcf	status, 6	;RP1=0, select bank0
  5264  08E9  0827               	movf	(0+(?___awdiv)),w
  5265  08EA  3E09               	addlw	09h
  5266  08EB  160A  158A  26BE   	fcall	___bmul
              120A  158A         
  5267  08F0  3E29               	addlw	low((__npowers_-__stringbase))
  5268  08F1  0084               	movwf	fsr0
  5269  08F2  160A  118A  2000   	fcall	stringdir
              120A  158A         
  5270  08F7  1283               	bcf	status, 5	;RP0=0, select bank0
  5271  08F8  1303               	bcf	status, 6	;RP1=0, select bank0
  5272  08F9  00C2               	movwf	(?___ftmul)
  5273  08FA  160A  118A  2000   	fcall	stringdir
              120A  158A         
  5274  08FF  00C3               	movwf	(?___ftmul+1)
  5275  0900  160A  118A  2000   	fcall	stringdir
              120A  158A         
  5276  0905  00C4               	movwf	(?___ftmul+2)
  5277  0906  3003               	movlw	(03h)
  5278  0907  00E5               	movwf	(??_fround+3)+0
  5279  0908  0865               	movf	(??_fround+3)+0,w
  5280  0909  00B0               	movwf	(?___bmul)
  5281  090A  3064               	movlw	low(064h)
  5282  090B  00A7               	movwf	(?___awdiv)
  5283  090C  3000               	movlw	high(064h)
  5284  090D  00A8               	movwf	((?___awdiv))+1
  5285  090E  086E               	movf	(fround@prec),w
  5286  090F  00E6               	movwf	(??_fround+4)+0
  5287  0910  01E7               	clrf	(??_fround+4)+0+1
  5288  0911  0866               	movf	0+(??_fround+4)+0,w
  5289  0912  00A9               	movwf	0+(?___awdiv)+02h
  5290  0913  0867               	movf	1+(??_fround+4)+0,w
  5291  0914  00AA               	movwf	1+(?___awdiv)+02h
  5292  0915  160A  118A  21DA   	fcall	___awdiv
              120A  158A         
  5293  091A  1283               	bcf	status, 5	;RP0=0, select bank0
  5294  091B  1303               	bcf	status, 6	;RP1=0, select bank0
  5295  091C  0827               	movf	(0+(?___awdiv)),w
  5296  091D  3E12               	addlw	012h
  5297  091E  160A  158A  26BE   	fcall	___bmul
              120A  158A         
  5298  0923  3E29               	addlw	low((__npowers_-__stringbase))
  5299  0924  0084               	movwf	fsr0
  5300  0925  160A  118A  2000   	fcall	stringdir
              120A  158A         
  5301  092A  1283               	bcf	status, 5	;RP0=0, select bank0
  5302  092B  1303               	bcf	status, 6	;RP1=0, select bank0
  5303  092C  00C5               	movwf	0+(?___ftmul)+03h
  5304  092D  160A  118A  2000   	fcall	stringdir
              120A  158A         
  5305  0932  00C6               	movwf	1+(?___ftmul)+03h
  5306  0933  160A  118A  2000   	fcall	stringdir
              120A  158A         
  5307  0938  00C7               	movwf	2+(?___ftmul)+03h
  5308  0939  160A  118A  2477   	fcall	___ftmul
              120A  158A         
  5309  093E  1283               	bcf	status, 5	;RP0=0, select bank0
  5310  093F  1303               	bcf	status, 6	;RP1=0, select bank0
  5311  0940  0842               	movf	(0+(?___ftmul)),w
  5312  0941  00EB               	movwf	(_fround$2937)
  5313  0942  0843               	movf	(1+(?___ftmul)),w
  5314  0943  00EC               	movwf	(_fround$2937+1)
  5315  0944  0844               	movf	(2+(?___ftmul)),w
  5316  0945  00ED               	movwf	(_fround$2937+2)
  5317  0946  3003               	movlw	(03h)
  5318  0947  00E2               	movwf	(??_fround+0)+0
  5319  0948  0862               	movf	(??_fround+0)+0,w
  5320  0949  00B0               	movwf	(?___bmul)
  5321  094A  086E               	movf	(fround@prec),w
  5322  094B  00E3               	movwf	(??_fround+1)+0
  5323  094C  01E4               	clrf	(??_fround+1)+0+1
  5324  094D  0863               	movf	0+(??_fround+1)+0,w
  5325  094E  00A2               	movwf	0+(?___awmod)+02h
  5326  094F  0864               	movf	1+(??_fround+1)+0,w
  5327  0950  00A3               	movwf	1+(?___awmod)+02h
  5328  0951  300A               	movlw	low(0Ah)
  5329  0952  00A0               	movwf	(?___awmod)
  5330  0953  3000               	movlw	high(0Ah)
  5331  0954  00A1               	movwf	((?___awmod))+1
  5332  0955  160A  158A  2798   	fcall	___awmod
              120A  158A         
  5333  095A  1283               	bcf	status, 5	;RP0=0, select bank0
  5334  095B  1303               	bcf	status, 6	;RP1=0, select bank0
  5335  095C  0820               	movf	(0+(?___awmod)),w
  5336  095D  160A  158A  26BE   	fcall	___bmul
              120A  158A         
  5337  0962  3E29               	addlw	low((__npowers_-__stringbase))
  5338  0963  0084               	movwf	fsr0
  5339  0964  160A  118A  2000   	fcall	stringdir
              120A  158A         
  5340  0969  1283               	bcf	status, 5	;RP0=0, select bank0
  5341  096A  1303               	bcf	status, 6	;RP1=0, select bank0
  5342  096B  00C2               	movwf	(?___ftmul)
  5343  096C  160A  118A  2000   	fcall	stringdir
              120A  158A         
  5344  0971  00C3               	movwf	(?___ftmul+1)
  5345  0972  160A  118A  2000   	fcall	stringdir
              120A  158A         
  5346  0977  00C4               	movwf	(?___ftmul+2)
  5347  0978  086B               	movf	(_fround$2937),w
  5348  0979  00C5               	movwf	0+(?___ftmul)+03h
  5349  097A  086C               	movf	(_fround$2937+1),w
  5350  097B  00C6               	movwf	1+(?___ftmul)+03h
  5351  097C  086D               	movf	(_fround$2937+2),w
  5352  097D  00C7               	movwf	2+(?___ftmul)+03h
  5353  097E  160A  118A  2477   	fcall	___ftmul
              120A  158A         
  5354  0983  1283               	bcf	status, 5	;RP0=0, select bank0
  5355  0984  1303               	bcf	status, 6	;RP1=0, select bank0
  5356  0985  0842               	movf	(0+(?___ftmul)),w
  5357  0986  00E8               	movwf	(_fround$2938)
  5358  0987  0843               	movf	(1+(?___ftmul)),w
  5359  0988  00E9               	movwf	(_fround$2938+1)
  5360  0989  0844               	movf	(2+(?___ftmul)),w
  5361  098A  00EA               	movwf	(_fround$2938+2)
  5362                           	
  5363  098B                     l6698:	
  5364  098B  3000               	movlw	0x0
  5365  098C  00C2               	movwf	(?___ftmul)
  5366  098D  3000               	movlw	0x0
  5367  098E  00C3               	movwf	(?___ftmul+1)
  5368  098F  303F               	movlw	0x3f
  5369  0990  00C4               	movwf	(?___ftmul+2)
  5370  0991  0868               	movf	(_fround$2938),w
  5371  0992  00C5               	movwf	0+(?___ftmul)+03h
  5372  0993  0869               	movf	(_fround$2938+1),w
  5373  0994  00C6               	movwf	1+(?___ftmul)+03h
  5374  0995  086A               	movf	(_fround$2938+2),w
  5375  0996  00C7               	movwf	2+(?___ftmul)+03h
  5376  0997  160A  118A  2477   	fcall	___ftmul
              120A  158A         
  5377  099C  1283               	bcf	status, 5	;RP0=0, select bank0
  5378  099D  1303               	bcf	status, 6	;RP1=0, select bank0
  5379  099E  0842               	movf	(0+(?___ftmul)),w
  5380  099F  00DF               	movwf	(?_fround)
  5381  09A0  0843               	movf	(1+(?___ftmul)),w
  5382  09A1  00E0               	movwf	(?_fround+1)
  5383  09A2  0844               	movf	(2+(?___ftmul)),w
  5384  09A3  00E1               	movwf	(?_fround+2)
  5385  09A4  2A6F               	goto	l1482
  5386                           	
  5387  09A5                     l6700:	
  5388  09A5  2A6F               	goto	l1482
  5389                           	
  5390  09A6                     l6702:	
  5391  09A6  2A3B               	goto	l6712
  5392                           	line	411
  5393                           	
  5394  09A7                     l1481:	
  5395                           	
  5396  09A7                     l6704:	
  5397  09A7  300B               	movlw	(0Bh)
  5398  09A8  026E               	subwf	(fround@prec),w
  5399  09A9  1C03               	skipc
  5400  09AA  29AC               	goto	u5701
  5401  09AB  29AD               	goto	u5700
  5402  09AC                     u5701:
  5403  09AC  2A3B               	goto	l6712
  5404  09AD                     u5700:
  5405                           	line	412
  5406                           	
  5407  09AD                     l6706:	
  5408  09AD  3003               	movlw	(03h)
  5409  09AE  00E2               	movwf	(??_fround+0)+0
  5410  09AF  0862               	movf	(??_fround+0)+0,w
  5411  09B0  00B0               	movwf	(?___bmul)
  5412  09B1  086E               	movf	(fround@prec),w
  5413  09B2  00E3               	movwf	(??_fround+1)+0
  5414  09B3  01E4               	clrf	(??_fround+1)+0+1
  5415  09B4  0863               	movf	0+(??_fround+1)+0,w
  5416  09B5  00A2               	movwf	0+(?___awmod)+02h
  5417  09B6  0864               	movf	1+(??_fround+1)+0,w
  5418  09B7  00A3               	movwf	1+(?___awmod)+02h
  5419  09B8  300A               	movlw	low(0Ah)
  5420  09B9  00A0               	movwf	(?___awmod)
  5421  09BA  3000               	movlw	high(0Ah)
  5422  09BB  00A1               	movwf	((?___awmod))+1
  5423  09BC  160A  158A  2798   	fcall	___awmod
              120A  158A         
  5424  09C1  1283               	bcf	status, 5	;RP0=0, select bank0
  5425  09C2  1303               	bcf	status, 6	;RP1=0, select bank0
  5426  09C3  0820               	movf	(0+(?___awmod)),w
  5427  09C4  160A  158A  26BE   	fcall	___bmul
              120A  158A         
  5428  09C9  3E29               	addlw	low((__npowers_-__stringbase))
  5429  09CA  0084               	movwf	fsr0
  5430  09CB  160A  118A  2000   	fcall	stringdir
              120A  158A         
  5431  09D0  1283               	bcf	status, 5	;RP0=0, select bank0
  5432  09D1  1303               	bcf	status, 6	;RP1=0, select bank0
  5433  09D2  00C2               	movwf	(?___ftmul)
  5434  09D3  160A  118A  2000   	fcall	stringdir
              120A  158A         
  5435  09D8  00C3               	movwf	(?___ftmul+1)
  5436  09D9  160A  118A  2000   	fcall	stringdir
              120A  158A         
  5437  09DE  00C4               	movwf	(?___ftmul+2)
  5438  09DF  3003               	movlw	(03h)
  5439  09E0  00E5               	movwf	(??_fround+3)+0
  5440  09E1  0865               	movf	(??_fround+3)+0,w
  5441  09E2  00B0               	movwf	(?___bmul)
  5442  09E3  300A               	movlw	low(0Ah)
  5443  09E4  00A7               	movwf	(?___awdiv)
  5444  09E5  3000               	movlw	high(0Ah)
  5445  09E6  00A8               	movwf	((?___awdiv))+1
  5446  09E7  086E               	movf	(fround@prec),w
  5447  09E8  00E6               	movwf	(??_fround+4)+0
  5448  09E9  01E7               	clrf	(??_fround+4)+0+1
  5449  09EA  0866               	movf	0+(??_fround+4)+0,w
  5450  09EB  00A9               	movwf	0+(?___awdiv)+02h
  5451  09EC  0867               	movf	1+(??_fround+4)+0,w
  5452  09ED  00AA               	movwf	1+(?___awdiv)+02h
  5453  09EE  160A  118A  21DA   	fcall	___awdiv
              120A  158A         
  5454  09F3  1283               	bcf	status, 5	;RP0=0, select bank0
  5455  09F4  1303               	bcf	status, 6	;RP1=0, select bank0
  5456  09F5  0827               	movf	(0+(?___awdiv)),w
  5457  09F6  3E09               	addlw	09h
  5458  09F7  160A  158A  26BE   	fcall	___bmul
              120A  158A         
  5459  09FC  3E29               	addlw	low((__npowers_-__stringbase))
  5460  09FD  0084               	movwf	fsr0
  5461  09FE  160A  118A  2000   	fcall	stringdir
              120A  158A         
  5462  0A03  1283               	bcf	status, 5	;RP0=0, select bank0
  5463  0A04  1303               	bcf	status, 6	;RP1=0, select bank0
  5464  0A05  00C5               	movwf	0+(?___ftmul)+03h
  5465  0A06  160A  118A  2000   	fcall	stringdir
              120A  158A         
  5466  0A0B  00C6               	movwf	1+(?___ftmul)+03h
  5467  0A0C  160A  118A  2000   	fcall	stringdir
              120A  158A         
  5468  0A11  00C7               	movwf	2+(?___ftmul)+03h
  5469  0A12  160A  118A  2477   	fcall	___ftmul
              120A  158A         
  5470  0A17  1283               	bcf	status, 5	;RP0=0, select bank0
  5471  0A18  1303               	bcf	status, 6	;RP1=0, select bank0
  5472  0A19  0842               	movf	(0+(?___ftmul)),w
  5473  0A1A  00EB               	movwf	(_fround$2937)
  5474  0A1B  0843               	movf	(1+(?___ftmul)),w
  5475  0A1C  00EC               	movwf	(_fround$2937+1)
  5476  0A1D  0844               	movf	(2+(?___ftmul)),w
  5477  0A1E  00ED               	movwf	(_fround$2937+2)
  5478                           	
  5479  0A1F                     l6708:	
  5480  0A1F  3000               	movlw	0x0
  5481  0A20  00C2               	movwf	(?___ftmul)
  5482  0A21  3000               	movlw	0x0
  5483  0A22  00C3               	movwf	(?___ftmul+1)
  5484  0A23  303F               	movlw	0x3f
  5485  0A24  00C4               	movwf	(?___ftmul+2)
  5486  0A25  086B               	movf	(_fround$2937),w
  5487  0A26  00C5               	movwf	0+(?___ftmul)+03h
  5488  0A27  086C               	movf	(_fround$2937+1),w
  5489  0A28  00C6               	movwf	1+(?___ftmul)+03h
  5490  0A29  086D               	movf	(_fround$2937+2),w
  5491  0A2A  00C7               	movwf	2+(?___ftmul)+03h
  5492  0A2B  160A  118A  2477   	fcall	___ftmul
              120A  158A         
  5493  0A30  1283               	bcf	status, 5	;RP0=0, select bank0
  5494  0A31  1303               	bcf	status, 6	;RP1=0, select bank0
  5495  0A32  0842               	movf	(0+(?___ftmul)),w
  5496  0A33  00DF               	movwf	(?_fround)
  5497  0A34  0843               	movf	(1+(?___ftmul)),w
  5498  0A35  00E0               	movwf	(?_fround+1)
  5499  0A36  0844               	movf	(2+(?___ftmul)),w
  5500  0A37  00E1               	movwf	(?_fround+2)
  5501  0A38  2A6F               	goto	l1482
  5502                           	
  5503  0A39                     l6710:	
  5504  0A39  2A6F               	goto	l1482
  5505                           	
  5506  0A3A                     l1484:	
  5507  0A3A  2A3B               	goto	l6712
  5508                           	line	413
  5509                           	
  5510  0A3B                     l1483:	
  5511                           	
  5512  0A3B                     l6712:	
  5513  0A3B  3000               	movlw	0x0
  5514  0A3C  00C2               	movwf	(?___ftmul)
  5515  0A3D  3000               	movlw	0x0
  5516  0A3E  00C3               	movwf	(?___ftmul+1)
  5517  0A3F  303F               	movlw	0x3f
  5518  0A40  00C4               	movwf	(?___ftmul+2)
  5519  0A41  3003               	movlw	(03h)
  5520  0A42  00E2               	movwf	(??_fround+0)+0
  5521  0A43  0862               	movf	(??_fround+0)+0,w
  5522  0A44  00B0               	movwf	(?___bmul)
  5523  0A45  086E               	movf	(fround@prec),w
  5524  0A46  160A  158A  26BE   	fcall	___bmul
              120A  158A         
  5525  0A4B  3E29               	addlw	low((__npowers_-__stringbase))
  5526  0A4C  0084               	movwf	fsr0
  5527  0A4D  160A  118A  2000   	fcall	stringdir
              120A  158A         
  5528  0A52  1283               	bcf	status, 5	;RP0=0, select bank0
  5529  0A53  1303               	bcf	status, 6	;RP1=0, select bank0
  5530  0A54  00C5               	movwf	0+(?___ftmul)+03h
  5531  0A55  160A  118A  2000   	fcall	stringdir
              120A  158A         
  5532  0A5A  00C6               	movwf	1+(?___ftmul)+03h
  5533  0A5B  160A  118A  2000   	fcall	stringdir
              120A  158A         
  5534  0A60  00C7               	movwf	2+(?___ftmul)+03h
  5535  0A61  160A  118A  2477   	fcall	___ftmul
              120A  158A         
  5536  0A66  1283               	bcf	status, 5	;RP0=0, select bank0
  5537  0A67  1303               	bcf	status, 6	;RP1=0, select bank0
  5538  0A68  0842               	movf	(0+(?___ftmul)),w
  5539  0A69  00DF               	movwf	(?_fround)
  5540  0A6A  0843               	movf	(1+(?___ftmul)),w
  5541  0A6B  00E0               	movwf	(?_fround+1)
  5542  0A6C  0844               	movf	(2+(?___ftmul)),w
  5543  0A6D  00E1               	movwf	(?_fround+2)
  5544  0A6E  2A6F               	goto	l1482
  5545                           	
  5546  0A6F                     l6714:	
  5547                           	line	414
  5548                           	
  5549  0A6F                     l1482:	
  5550  0A6F  0008               	return
  5551                           	opt stack 0
  5552                           GLOBAL	__end_of_fround
  5553  0A70                     	__end_of_fround:
  5554 ;; =============== function _fround ends ============
  5555                           
  5556                           	signat	_fround,4219
  5557                           	global	___lltoft
  5558                           psect	text764,local,class=CODE,delta=2
  5559                           global __ptext764
  5560  07C0                     __ptext764:
  5561                           
  5562 ;; *************** function ___lltoft *****************
  5563 ;; Defined at:
  5564 ;;		line 36 in file "C:\Program Files (x86)\HI-TECH Software\PICC\9.83\sources\lltoft.c"
  5565 ;; Parameters:    Size  Location     Type
  5566 ;;  c               4    8[BANK0 ] unsigned long 
  5567 ;; Auto vars:     Size  Location     Type
  5568 ;;  exp             1   13[BANK0 ] unsigned char 
  5569 ;; Return value:  Size  Location     Type
  5570 ;;                  3    8[BANK0 ] float 
  5571 ;; Registers used:
  5572 ;;		wreg, status,2, status,0, pclath, cstack
  5573 ;; Tracked objects:
  5574 ;;		On entry : 0/0
  5575 ;;		On exit  : 0/0
  5576 ;;		Unchanged: 0/0
  5577 ;; Data sizes:     COMMON   BANK0   BANK1   BANK3   BANK2
  5578 ;;      Params:         0       4       0       0       0
  5579 ;;      Locals:         0       1       0       0       0
  5580 ;;      Temps:          0       1       0       0       0
  5581 ;;      Totals:         0       6       0       0       0
  5582 ;;Total ram usage:        6 bytes
  5583 ;; Hardware stack levels used:    1
  5584 ;; Hardware stack levels required when called:    2
  5585 ;; This function calls:
  5586 ;;		___ftpack
  5587 ;; This function is called by:
  5588 ;;		_printf
  5589 ;; This function uses a non-reentrant model
  5590 ;;
  5591                           psect	text764
  5592                           	file	"C:\Program Files (x86)\HI-TECH Software\PICC\9.83\sources\lltoft.c"
  5593                           	line	36
  5594                           	global	__size_of___lltoft
  5595  0036                     	__size_of___lltoft	equ	__end_of___lltoft-___lltoft
  5596                           	
  5597  07C0                     ___lltoft:	
  5598                           	opt	stack 4
  5599                           ; Regs used in ___lltoft: [wreg+status,2+status,0+pclath+cstack]
  5600                           	line	38
  5601                           	
  5602  07C0                     l6140:	
  5603  07C0  308E               	movlw	(08Eh)
  5604  07C1  1283               	bcf	status, 5	;RP0=0, select bank0
  5605  07C2  1303               	bcf	status, 6	;RP1=0, select bank0
  5606  07C3  00AC               	movwf	(??___lltoft+0)+0
  5607  07C4  082C               	movf	(??___lltoft+0)+0,w
  5608  07C5  00AD               	movwf	(___lltoft@exp)
  5609                           	line	41
  5610  07C6  2FD5               	goto	l6144
  5611                           	
  5612  07C7                     l2470:	
  5613                           	line	42
  5614                           	
  5615  07C7                     l6142:	
  5616  07C7  3001               	movlw	01h
  5617  07C8                     u5135:
  5618  07C8  1003               	clrc
  5619  07C9  0CAB               	rrf	(___lltoft@c+3),f
  5620  07CA  0CAA               	rrf	(___lltoft@c+2),f
  5621  07CB  0CA9               	rrf	(___lltoft@c+1),f
  5622  07CC  0CA8               	rrf	(___lltoft@c),f
  5623  07CD  3EFF               	addlw	-1
  5624  07CE  1D03               	skipz
  5625  07CF  2FC8               	goto	u5135
  5626                           
  5627                           	line	43
  5628  07D0  3001               	movlw	(01h)
  5629  07D1  00AC               	movwf	(??___lltoft+0)+0
  5630  07D2  082C               	movf	(??___lltoft+0)+0,w
  5631  07D3  07AD               	addwf	(___lltoft@exp),f
  5632  07D4  2FD5               	goto	l6144
  5633                           	line	44
  5634                           	
  5635  07D5                     l2469:	
  5636                           	line	41
  5637                           	
  5638  07D5                     l6144:	
  5639  07D5  30FF               	movlw	high highword(-16777216)
  5640  07D6  052B               	andwf	(___lltoft@c+3),w
  5641  07D7  1D03               	btfss	status,2
  5642  07D8  2FDA               	goto	u5141
  5643  07D9  2FDB               	goto	u5140
  5644  07DA                     u5141:
  5645  07DA  2FC7               	goto	l6142
  5646  07DB                     u5140:
  5647  07DB  2FDC               	goto	l6146
  5648                           	
  5649  07DC                     l2471:	
  5650                           	line	45
  5651                           	
  5652  07DC                     l6146:	
  5653  07DC  0828               	movf	(___lltoft@c),w
  5654  07DD  00A0               	movwf	(?___ftpack)
  5655  07DE  0829               	movf	(___lltoft@c+1),w
  5656  07DF  00A1               	movwf	(?___ftpack+1)
  5657  07E0  082A               	movf	(___lltoft@c+2),w
  5658  07E1  00A2               	movwf	(?___ftpack+2)
  5659  07E2  082D               	movf	(___lltoft@exp),w
  5660  07E3  00AC               	movwf	(??___lltoft+0)+0
  5661  07E4  082C               	movf	(??___lltoft+0)+0,w
  5662  07E5  00A3               	movwf	0+(?___ftpack)+03h
  5663  07E6  01A4               	clrf	0+(?___ftpack)+04h
  5664  07E7  160A  118A  2250   	fcall	___ftpack
              120A  118A         
  5665  07EC  1283               	bcf	status, 5	;RP0=0, select bank0
  5666  07ED  1303               	bcf	status, 6	;RP1=0, select bank0
  5667  07EE  0820               	movf	(0+(?___ftpack)),w
  5668  07EF  00A8               	movwf	(?___lltoft)
  5669  07F0  0821               	movf	(1+(?___ftpack)),w
  5670  07F1  00A9               	movwf	(?___lltoft+1)
  5671  07F2  0822               	movf	(2+(?___ftpack)),w
  5672  07F3  00AA               	movwf	(?___lltoft+2)
  5673  07F4  2FF5               	goto	l2472
  5674                           	
  5675  07F5                     l6148:	
  5676                           	line	46
  5677                           	
  5678  07F5                     l2472:	
  5679  07F5  0008               	return
  5680                           	opt stack 0
  5681                           GLOBAL	__end_of___lltoft
  5682  07F6                     	__end_of___lltoft:
  5683 ;; =============== function ___lltoft ends ============
  5684                           
  5685                           	signat	___lltoft,4219
  5686                           	global	___lwtoft
  5687                           psect	text765,local,class=CODE,delta=2
  5688                           global __ptext765
  5689  1ED8                     __ptext765:
  5690                           
  5691 ;; *************** function ___lwtoft *****************
  5692 ;; Defined at:
  5693 ;;		line 29 in file "C:\Program Files (x86)\HI-TECH Software\PICC\9.83\sources\lwtoft.c"
  5694 ;; Parameters:    Size  Location     Type
  5695 ;;  c               2    8[BANK0 ] unsigned int 
  5696 ;; Auto vars:     Size  Location     Type
  5697 ;;		None
  5698 ;; Return value:  Size  Location     Type
  5699 ;;                  3    8[BANK0 ] float 
  5700 ;; Registers used:
  5701 ;;		wreg, status,2, status,0, pclath, cstack
  5702 ;; Tracked objects:
  5703 ;;		On entry : 0/0
  5704 ;;		On exit  : 0/0
  5705 ;;		Unchanged: 0/0
  5706 ;; Data sizes:     COMMON   BANK0   BANK1   BANK3   BANK2
  5707 ;;      Params:         0       3       0       0       0
  5708 ;;      Locals:         0       0       0       0       0
  5709 ;;      Temps:          0       1       0       0       0
  5710 ;;      Totals:         0       4       0       0       0
  5711 ;;Total ram usage:        4 bytes
  5712 ;; Hardware stack levels used:    1
  5713 ;; Hardware stack levels required when called:    2
  5714 ;; This function calls:
  5715 ;;		___ftpack
  5716 ;; This function is called by:
  5717 ;;		_main
  5718 ;; This function uses a non-reentrant model
  5719 ;;
  5720                           psect	text765
  5721                           	file	"C:\Program Files (x86)\HI-TECH Software\PICC\9.83\sources\lwtoft.c"
  5722                           	line	29
  5723                           	global	__size_of___lwtoft
  5724  001B                     	__size_of___lwtoft	equ	__end_of___lwtoft-___lwtoft
  5725                           	
  5726  1ED8                     ___lwtoft:	
  5727                           	opt	stack 5
  5728                           ; Regs used in ___lwtoft: [wreg+status,2+status,0+pclath+cstack]
  5729                           	line	30
  5730                           	
  5731  1ED8                     l6136:	
  5732  1ED8  1283               	bcf	status, 5	;RP0=0, select bank0
  5733  1ED9  1303               	bcf	status, 6	;RP1=0, select bank0
  5734  1EDA  0828               	movf	(___lwtoft@c),w
  5735  1EDB  00A0               	movwf	(?___ftpack)
  5736  1EDC  0829               	movf	(___lwtoft@c+1),w
  5737  1EDD  00A1               	movwf	(?___ftpack+1)
  5738  1EDE  01A2               	clrf	(?___ftpack+2)
  5739  1EDF  308E               	movlw	(08Eh)
  5740  1EE0  00AB               	movwf	(??___lwtoft+0)+0
  5741  1EE1  082B               	movf	(??___lwtoft+0)+0,w
  5742  1EE2  00A3               	movwf	0+(?___ftpack)+03h
  5743  1EE3  01A4               	clrf	0+(?___ftpack)+04h
  5744  1EE4  160A  118A  2250   	fcall	___ftpack
              160A  158A         
  5745  1EE9  1283               	bcf	status, 5	;RP0=0, select bank0
  5746  1EEA  1303               	bcf	status, 6	;RP1=0, select bank0
  5747  1EEB  0820               	movf	(0+(?___ftpack)),w
  5748  1EEC  00A8               	movwf	(?___lwtoft)
  5749  1EED  0821               	movf	(1+(?___ftpack)),w
  5750  1EEE  00A9               	movwf	(?___lwtoft+1)
  5751  1EEF  0822               	movf	(2+(?___ftpack)),w
  5752  1EF0  00AA               	movwf	(?___lwtoft+2)
  5753  1EF1  2EF2               	goto	l2455
  5754                           	
  5755  1EF2                     l6138:	
  5756                           	line	31
  5757                           	
  5758  1EF2                     l2455:	
  5759  1EF2  0008               	return
  5760                           	opt stack 0
  5761                           GLOBAL	__end_of___lwtoft
  5762  1EF3                     	__end_of___lwtoft:
  5763 ;; =============== function ___lwtoft ends ============
  5764                           
  5765                           	signat	___lwtoft,4219
  5766                           	global	___ftmul
  5767                           psect	text766,local,class=CODE,delta=2
  5768                           global __ptext766
  5769  1477                     __ptext766:
  5770                           
  5771 ;; *************** function ___ftmul *****************
  5772 ;; Defined at:
  5773 ;;		line 52 in file "C:\Program Files (x86)\HI-TECH Software\PICC\9.83\sources\ftmul.c"
  5774 ;; Parameters:    Size  Location     Type
  5775 ;;  f1              3   34[BANK0 ] float 
  5776 ;;  f2              3   37[BANK0 ] float 
  5777 ;; Auto vars:     Size  Location     Type
  5778 ;;  f3_as_produc    3   45[BANK0 ] unsigned um
  5779 ;;  sign            1   49[BANK0 ] unsigned char 
  5780 ;;  cntr            1   48[BANK0 ] unsigned char 
  5781 ;;  exp             1   44[BANK0 ] unsigned char 
  5782 ;; Return value:  Size  Location     Type
  5783 ;;                  3   34[BANK0 ] float 
  5784 ;; Registers used:
  5785 ;;		wreg, status,2, status,0, pclath, cstack
  5786 ;; Tracked objects:
  5787 ;;		On entry : 0/0
  5788 ;;		On exit  : 0/0
  5789 ;;		Unchanged: 0/0
  5790 ;; Data sizes:     COMMON   BANK0   BANK1   BANK3   BANK2
  5791 ;;      Params:         0       6       0       0       0
  5792 ;;      Locals:         0       6       0       0       0
  5793 ;;      Temps:          0       4       0       0       0
  5794 ;;      Totals:         0      16       0       0       0
  5795 ;;Total ram usage:       16 bytes
  5796 ;; Hardware stack levels used:    1
  5797 ;; Hardware stack levels required when called:    2
  5798 ;; This function calls:
  5799 ;;		___ftpack
  5800 ;; This function is called by:
  5801 ;;		_main
  5802 ;;		_fround
  5803 ;;		_scale
  5804 ;;		_printf
  5805 ;; This function uses a non-reentrant model
  5806 ;;
  5807                           psect	text766
  5808                           	file	"C:\Program Files (x86)\HI-TECH Software\PICC\9.83\sources\ftmul.c"
  5809                           	line	52
  5810                           	global	__size_of___ftmul
  5811  00EE                     	__size_of___ftmul	equ	__end_of___ftmul-___ftmul
  5812                           	
  5813  1477                     ___ftmul:	
  5814                           	opt	stack 3
  5815                           ; Regs used in ___ftmul: [wreg+status,2+status,0+pclath+cstack]
  5816                           	line	56
  5817                           	
  5818  1477                     l6086:	
  5819  1477  1283               	bcf	status, 5	;RP0=0, select bank0
  5820  1478  1303               	bcf	status, 6	;RP1=0, select bank0
  5821  1479  0842               	movf	(___ftmul@f1),w
  5822  147A  00C8               	movwf	((??___ftmul+0)+0)
  5823  147B  0843               	movf	(___ftmul@f1+1),w
  5824  147C  00C9               	movwf	((??___ftmul+0)+0+1)
  5825  147D  0844               	movf	(___ftmul@f1+2),w
  5826  147E  00CA               	movwf	((??___ftmul+0)+0+2)
  5827  147F  1003               	clrc
  5828  1480  0D49               	rlf	(??___ftmul+0)+1,w
  5829  1481  0D4A               	rlf	(??___ftmul+0)+2,w
  5830  1482  00CB               	movwf	(??___ftmul+3)+0
  5831  1483  084B               	movf	(??___ftmul+3)+0,w
  5832  1484  00CC               	movwf	(___ftmul@exp)
  5833  1485  08CC               	movf	((___ftmul@exp)),f
  5834  1486  1D03               	skipz
  5835  1487  2C89               	goto	u4991
  5836  1488  2C8A               	goto	u4990
  5837  1489                     u4991:
  5838  1489  2C92               	goto	l6092
  5839  148A                     u4990:
  5840                           	line	57
  5841                           	
  5842  148A                     l6088:	
  5843  148A  3000               	movlw	0x0
  5844  148B  00C2               	movwf	(?___ftmul)
  5845  148C  3000               	movlw	0x0
  5846  148D  00C3               	movwf	(?___ftmul+1)
  5847  148E  3000               	movlw	0x0
  5848  148F  00C4               	movwf	(?___ftmul+2)
  5849  1490  2D64               	goto	l2331
  5850                           	
  5851  1491                     l6090:	
  5852  1491  2D64               	goto	l2331
  5853                           	
  5854  1492                     l2330:	
  5855                           	line	58
  5856                           	
  5857  1492                     l6092:	
  5858  1492  0845               	movf	(___ftmul@f2),w
  5859  1493  00C8               	movwf	((??___ftmul+0)+0)
  5860  1494  0846               	movf	(___ftmul@f2+1),w
  5861  1495  00C9               	movwf	((??___ftmul+0)+0+1)
  5862  1496  0847               	movf	(___ftmul@f2+2),w
  5863  1497  00CA               	movwf	((??___ftmul+0)+0+2)
  5864  1498  1003               	clrc
  5865  1499  0D49               	rlf	(??___ftmul+0)+1,w
  5866  149A  0D4A               	rlf	(??___ftmul+0)+2,w
  5867  149B  00CB               	movwf	(??___ftmul+3)+0
  5868  149C  084B               	movf	(??___ftmul+3)+0,w
  5869  149D  00D1               	movwf	(___ftmul@sign)
  5870  149E  08D1               	movf	((___ftmul@sign)),f
  5871  149F  1D03               	skipz
  5872  14A0  2CA2               	goto	u5001
  5873  14A1  2CA3               	goto	u5000
  5874  14A2                     u5001:
  5875  14A2  2CAB               	goto	l6098
  5876  14A3                     u5000:
  5877                           	line	59
  5878                           	
  5879  14A3                     l6094:	
  5880  14A3  3000               	movlw	0x0
  5881  14A4  00C2               	movwf	(?___ftmul)
  5882  14A5  3000               	movlw	0x0
  5883  14A6  00C3               	movwf	(?___ftmul+1)
  5884  14A7  3000               	movlw	0x0
  5885  14A8  00C4               	movwf	(?___ftmul+2)
  5886  14A9  2D64               	goto	l2331
  5887                           	
  5888  14AA                     l6096:	
  5889  14AA  2D64               	goto	l2331
  5890                           	
  5891  14AB                     l2332:	
  5892                           	line	60
  5893                           	
  5894  14AB                     l6098:	
  5895  14AB  0851               	movf	(___ftmul@sign),w
  5896  14AC  3E7B               	addlw	07Bh
  5897  14AD  00C8               	movwf	(??___ftmul+0)+0
  5898  14AE  0848               	movf	(??___ftmul+0)+0,w
  5899  14AF  07CC               	addwf	(___ftmul@exp),f
  5900                           	line	61
  5901  14B0  0842               	movf	(___ftmul@f1),w
  5902  14B1  00C8               	movwf	((??___ftmul+0)+0)
  5903  14B2  0843               	movf	(___ftmul@f1+1),w
  5904  14B3  00C9               	movwf	((??___ftmul+0)+0+1)
  5905  14B4  0844               	movf	(___ftmul@f1+2),w
  5906  14B5  00CA               	movwf	((??___ftmul+0)+0+2)
  5907  14B6  3010               	movlw	010h
  5908  14B7                     u5015:
  5909  14B7  1003               	clrc
  5910  14B8  0CCA               	rrf	(??___ftmul+0)+2,f
  5911  14B9  0CC9               	rrf	(??___ftmul+0)+1,f
  5912  14BA  0CC8               	rrf	(??___ftmul+0)+0,f
  5913  14BB                     u5010:
  5914  14BB  3EFF               	addlw	-1
  5915  14BC  1D03               	skipz
  5916  14BD  2CB7               	goto	u5015
  5917  14BE  0848               	movf	0+(??___ftmul+0)+0,w
  5918  14BF  00CB               	movwf	(??___ftmul+3)+0
  5919  14C0  084B               	movf	(??___ftmul+3)+0,w
  5920  14C1  00D1               	movwf	(___ftmul@sign)
  5921                           	line	62
  5922  14C2  0845               	movf	(___ftmul@f2),w
  5923  14C3  00C8               	movwf	((??___ftmul+0)+0)
  5924  14C4  0846               	movf	(___ftmul@f2+1),w
  5925  14C5  00C9               	movwf	((??___ftmul+0)+0+1)
  5926  14C6  0847               	movf	(___ftmul@f2+2),w
  5927  14C7  00CA               	movwf	((??___ftmul+0)+0+2)
  5928  14C8  3010               	movlw	010h
  5929  14C9                     u5025:
  5930  14C9  1003               	clrc
  5931  14CA  0CCA               	rrf	(??___ftmul+0)+2,f
  5932  14CB  0CC9               	rrf	(??___ftmul+0)+1,f
  5933  14CC  0CC8               	rrf	(??___ftmul+0)+0,f
  5934  14CD                     u5020:
  5935  14CD  3EFF               	addlw	-1
  5936  14CE  1D03               	skipz
  5937  14CF  2CC9               	goto	u5025
  5938  14D0  0848               	movf	0+(??___ftmul+0)+0,w
  5939  14D1  00CB               	movwf	(??___ftmul+3)+0
  5940  14D2  084B               	movf	(??___ftmul+3)+0,w
  5941  14D3  06D1               	xorwf	(___ftmul@sign),f
  5942                           	line	63
  5943  14D4  3080               	movlw	(080h)
  5944  14D5  00C8               	movwf	(??___ftmul+0)+0
  5945  14D6  0848               	movf	(??___ftmul+0)+0,w
  5946  14D7  05D1               	andwf	(___ftmul@sign),f
  5947                           	line	64
  5948                           	
  5949  14D8                     l6100:	
  5950  14D8  17C3               	bsf	(___ftmul@f1)+(15/8),(15)&7
  5951                           	line	66
  5952                           	
  5953  14D9                     l6102:	
  5954  14D9  17C6               	bsf	(___ftmul@f2)+(15/8),(15)&7
  5955                           	line	67
  5956                           	
  5957  14DA                     l6104:	
  5958  14DA  30FF               	movlw	0FFh
  5959  14DB  05C5               	andwf	(___ftmul@f2),f
  5960  14DC  30FF               	movlw	0FFh
  5961  14DD  05C6               	andwf	(___ftmul@f2+1),f
  5962  14DE  3000               	movlw	0
  5963  14DF  05C7               	andwf	(___ftmul@f2+2),f
  5964                           	line	68
  5965                           	
  5966  14E0                     l6106:	
  5967  14E0  3000               	movlw	0
  5968  14E1  00CD               	movwf	(___ftmul@f3_as_product)
  5969  14E2  3000               	movlw	0
  5970  14E3  00CE               	movwf	(___ftmul@f3_as_product+1)
  5971  14E4  3000               	movlw	0
  5972  14E5  00CF               	movwf	(___ftmul@f3_as_product+2)
  5973                           	line	69
  5974                           	
  5975  14E6                     l6108:	
  5976  14E6  3007               	movlw	(07h)
  5977  14E7  00C8               	movwf	(??___ftmul+0)+0
  5978  14E8  0848               	movf	(??___ftmul+0)+0,w
  5979  14E9  00D0               	movwf	(___ftmul@cntr)
  5980  14EA  2CEB               	goto	l6110
  5981                           	line	70
  5982                           	
  5983  14EB                     l2333:	
  5984                           	line	71
  5985                           	
  5986  14EB                     l6110:	
  5987  14EB  1C42               	btfss	(___ftmul@f1),(0)&7
  5988  14EC  2CEE               	goto	u5031
  5989  14ED  2CEF               	goto	u5030
  5990  14EE                     u5031:
  5991  14EE  2D00               	goto	l6114
  5992  14EF                     u5030:
  5993                           	line	72
  5994                           	
  5995  14EF                     l6112:	
  5996  14EF  0845               	movf	(___ftmul@f2),w
  5997  14F0  07CD               	addwf	(___ftmul@f3_as_product),f
  5998  14F1  0846               	movf	(___ftmul@f2+1),w
  5999  14F2  1103               	clrz
  6000  14F3  1803               	skipnc
  6001  14F4  0A46               	incf	(___ftmul@f2+1),w
  6002  14F5  1903               	skipnz
  6003  14F6  2CF8               	goto	u5041
  6004  14F7  07CE               	addwf	(___ftmul@f3_as_product+1),f
  6005  14F8                     u5041:
  6006  14F8  0847               	movf	(___ftmul@f2+2),w
  6007  14F9  1103               	clrz
  6008  14FA  1803               	skipnc
  6009  14FB  0A47               	incf	(___ftmul@f2+2),w
  6010  14FC  1903               	skipnz
  6011  14FD  2CFF               	goto	u5042
  6012  14FE  07CF               	addwf	(___ftmul@f3_as_product+2),f
  6013  14FF                     u5042:
  6014                           
  6015  14FF  2D00               	goto	l6114
  6016                           	
  6017  1500                     l2334:	
  6018                           	line	73
  6019                           	
  6020  1500                     l6114:	
  6021  1500  3001               	movlw	01h
  6022  1501                     u5055:
  6023  1501  1003               	clrc
  6024  1502  0CC4               	rrf	(___ftmul@f1+2),f
  6025  1503  0CC3               	rrf	(___ftmul@f1+1),f
  6026  1504  0CC2               	rrf	(___ftmul@f1),f
  6027  1505  3EFF               	addlw	-1
  6028  1506  1D03               	skipz
  6029  1507  2D01               	goto	u5055
  6030                           
  6031                           	line	74
  6032                           	
  6033  1508                     l6116:	
  6034  1508  3001               	movlw	01h
  6035  1509                     u5065:
  6036  1509  1003               	clrc
  6037  150A  0DC5               	rlf	(___ftmul@f2),f
  6038  150B  0DC6               	rlf	(___ftmul@f2+1),f
  6039  150C  0DC7               	rlf	(___ftmul@f2+2),f
  6040  150D  3EFF               	addlw	-1
  6041  150E  1D03               	skipz
  6042  150F  2D09               	goto	u5065
  6043                           	line	75
  6044                           	
  6045  1510                     l6118:	
  6046  1510  3001               	movlw	low(01h)
  6047  1511  02D0               	subwf	(___ftmul@cntr),f
  6048  1512  1D03               	btfss	status,2
  6049  1513  2D15               	goto	u5071
  6050  1514  2D16               	goto	u5070
  6051  1515                     u5071:
  6052  1515  2CEB               	goto	l6110
  6053  1516                     u5070:
  6054  1516  2D17               	goto	l6120
  6055                           	
  6056  1517                     l2335:	
  6057                           	line	76
  6058                           	
  6059  1517                     l6120:	
  6060  1517  3009               	movlw	(09h)
  6061  1518  00C8               	movwf	(??___ftmul+0)+0
  6062  1519  0848               	movf	(??___ftmul+0)+0,w
  6063  151A  00D0               	movwf	(___ftmul@cntr)
  6064  151B  2D1C               	goto	l6122
  6065                           	line	77
  6066                           	
  6067  151C                     l2336:	
  6068                           	line	78
  6069                           	
  6070  151C                     l6122:	
  6071  151C  1C42               	btfss	(___ftmul@f1),(0)&7
  6072  151D  2D1F               	goto	u5081
  6073  151E  2D20               	goto	u5080
  6074  151F                     u5081:
  6075  151F  2D31               	goto	l6126
  6076  1520                     u5080:
  6077                           	line	79
  6078                           	
  6079  1520                     l6124:	
  6080  1520  0845               	movf	(___ftmul@f2),w
  6081  1521  07CD               	addwf	(___ftmul@f3_as_product),f
  6082  1522  0846               	movf	(___ftmul@f2+1),w
  6083  1523  1103               	clrz
  6084  1524  1803               	skipnc
  6085  1525  0A46               	incf	(___ftmul@f2+1),w
  6086  1526  1903               	skipnz
  6087  1527  2D29               	goto	u5091
  6088  1528  07CE               	addwf	(___ftmul@f3_as_product+1),f
  6089  1529                     u5091:
  6090  1529  0847               	movf	(___ftmul@f2+2),w
  6091  152A  1103               	clrz
  6092  152B  1803               	skipnc
  6093  152C  0A47               	incf	(___ftmul@f2+2),w
  6094  152D  1903               	skipnz
  6095  152E  2D30               	goto	u5092
  6096  152F  07CF               	addwf	(___ftmul@f3_as_product+2),f
  6097  1530                     u5092:
  6098                           
  6099  1530  2D31               	goto	l6126
  6100                           	
  6101  1531                     l2337:	
  6102                           	line	80
  6103                           	
  6104  1531                     l6126:	
  6105  1531  3001               	movlw	01h
  6106  1532                     u5105:
  6107  1532  1003               	clrc
  6108  1533  0CC4               	rrf	(___ftmul@f1+2),f
  6109  1534  0CC3               	rrf	(___ftmul@f1+1),f
  6110  1535  0CC2               	rrf	(___ftmul@f1),f
  6111  1536  3EFF               	addlw	-1
  6112  1537  1D03               	skipz
  6113  1538  2D32               	goto	u5105
  6114                           
  6115                           	line	81
  6116                           	
  6117  1539                     l6128:	
  6118  1539  3001               	movlw	01h
  6119  153A                     u5115:
  6120  153A  1003               	clrc
  6121  153B  0CCF               	rrf	(___ftmul@f3_as_product+2),f
  6122  153C  0CCE               	rrf	(___ftmul@f3_as_product+1),f
  6123  153D  0CCD               	rrf	(___ftmul@f3_as_product),f
  6124  153E  3EFF               	addlw	-1
  6125  153F  1D03               	skipz
  6126  1540  2D3A               	goto	u5115
  6127                           
  6128                           	line	82
  6129                           	
  6130  1541                     l6130:	
  6131  1541  3001               	movlw	low(01h)
  6132  1542  02D0               	subwf	(___ftmul@cntr),f
  6133  1543  1D03               	btfss	status,2
  6134  1544  2D46               	goto	u5121
  6135  1545  2D47               	goto	u5120
  6136  1546                     u5121:
  6137  1546  2D1C               	goto	l6122
  6138  1547                     u5120:
  6139  1547  2D48               	goto	l6132
  6140                           	
  6141  1548                     l2338:	
  6142                           	line	83
  6143                           	
  6144  1548                     l6132:	
  6145  1548  084D               	movf	(___ftmul@f3_as_product),w
  6146  1549  00A0               	movwf	(?___ftpack)
  6147  154A  084E               	movf	(___ftmul@f3_as_product+1),w
  6148  154B  00A1               	movwf	(?___ftpack+1)
  6149  154C  084F               	movf	(___ftmul@f3_as_product+2),w
  6150  154D  00A2               	movwf	(?___ftpack+2)
  6151  154E  084C               	movf	(___ftmul@exp),w
  6152  154F  00C8               	movwf	(??___ftmul+0)+0
  6153  1550  0848               	movf	(??___ftmul+0)+0,w
  6154  1551  00A3               	movwf	0+(?___ftpack)+03h
  6155  1552  0851               	movf	(___ftmul@sign),w
  6156  1553  00C9               	movwf	(??___ftmul+1)+0
  6157  1554  0849               	movf	(??___ftmul+1)+0,w
  6158  1555  00A4               	movwf	0+(?___ftpack)+04h
  6159  1556  160A  118A  2250   	fcall	___ftpack
              160A  118A         
  6160  155B  1283               	bcf	status, 5	;RP0=0, select bank0
  6161  155C  1303               	bcf	status, 6	;RP1=0, select bank0
  6162  155D  0820               	movf	(0+(?___ftpack)),w
  6163  155E  00C2               	movwf	(?___ftmul)
  6164  155F  0821               	movf	(1+(?___ftpack)),w
  6165  1560  00C3               	movwf	(?___ftmul+1)
  6166  1561  0822               	movf	(2+(?___ftpack)),w
  6167  1562  00C4               	movwf	(?___ftmul+2)
  6168  1563  2D64               	goto	l2331
  6169                           	
  6170  1564                     l6134:	
  6171                           	line	84
  6172                           	
  6173  1564                     l2331:	
  6174  1564  0008               	return
  6175                           	opt stack 0
  6176                           GLOBAL	__end_of___ftmul
  6177  1565                     	__end_of___ftmul:
  6178 ;; =============== function ___ftmul ends ============
  6179                           
  6180                           	signat	___ftmul,8315
  6181                           	global	___ftdiv
  6182                           psect	text767,local,class=CODE,delta=2
  6183                           global __ptext767
  6184  12CD                     __ptext767:
  6185                           
  6186 ;; *************** function ___ftdiv *****************
  6187 ;; Defined at:
  6188 ;;		line 50 in file "C:\Program Files (x86)\HI-TECH Software\PICC\9.83\sources\ftdiv.c"
  6189 ;; Parameters:    Size  Location     Type
  6190 ;;  f2              3   12[BANK0 ] float 
  6191 ;;  f1              3   15[BANK0 ] float 
  6192 ;; Auto vars:     Size  Location     Type
  6193 ;;  f3              3   23[BANK0 ] float 
  6194 ;;  sign            1   27[BANK0 ] unsigned char 
  6195 ;;  exp             1   26[BANK0 ] unsigned char 
  6196 ;;  cntr            1   22[BANK0 ] unsigned char 
  6197 ;; Return value:  Size  Location     Type
  6198 ;;                  3   12[BANK0 ] float 
  6199 ;; Registers used:
  6200 ;;		wreg, status,2, status,0, pclath, cstack
  6201 ;; Tracked objects:
  6202 ;;		On entry : 0/0
  6203 ;;		On exit  : 0/0
  6204 ;;		Unchanged: 0/0
  6205 ;; Data sizes:     COMMON   BANK0   BANK1   BANK3   BANK2
  6206 ;;      Params:         0       6       0       0       0
  6207 ;;      Locals:         0       6       0       0       0
  6208 ;;      Temps:          0       4       0       0       0
  6209 ;;      Totals:         0      16       0       0       0
  6210 ;;Total ram usage:       16 bytes
  6211 ;; Hardware stack levels used:    1
  6212 ;; Hardware stack levels required when called:    2
  6213 ;; This function calls:
  6214 ;;		___ftpack
  6215 ;; This function is called by:
  6216 ;;		_main
  6217 ;; This function uses a non-reentrant model
  6218 ;;
  6219                           psect	text767
  6220                           	file	"C:\Program Files (x86)\HI-TECH Software\PICC\9.83\sources\ftdiv.c"
  6221                           	line	50
  6222                           	global	__size_of___ftdiv
  6223  00C8                     	__size_of___ftdiv	equ	__end_of___ftdiv-___ftdiv
  6224                           	
  6225  12CD                     ___ftdiv:	
  6226                           	opt	stack 5
  6227                           ; Regs used in ___ftdiv: [wreg+status,2+status,0+pclath+cstack]
  6228                           	line	55
  6229                           	
  6230  12CD                     l6044:	
  6231  12CD  1283               	bcf	status, 5	;RP0=0, select bank0
  6232  12CE  1303               	bcf	status, 6	;RP1=0, select bank0
  6233  12CF  082F               	movf	(___ftdiv@f1),w
  6234  12D0  00B2               	movwf	((??___ftdiv+0)+0)
  6235  12D1  0830               	movf	(___ftdiv@f1+1),w
  6236  12D2  00B3               	movwf	((??___ftdiv+0)+0+1)
  6237  12D3  0831               	movf	(___ftdiv@f1+2),w
  6238  12D4  00B4               	movwf	((??___ftdiv+0)+0+2)
  6239  12D5  1003               	clrc
  6240  12D6  0D33               	rlf	(??___ftdiv+0)+1,w
  6241  12D7  0D34               	rlf	(??___ftdiv+0)+2,w
  6242  12D8  00B5               	movwf	(??___ftdiv+3)+0
  6243  12D9  0835               	movf	(??___ftdiv+3)+0,w
  6244  12DA  00BA               	movwf	(___ftdiv@exp)
  6245  12DB  08BA               	movf	((___ftdiv@exp)),f
  6246  12DC  1D03               	skipz
  6247  12DD  2ADF               	goto	u4911
  6248  12DE  2AE0               	goto	u4910
  6249  12DF                     u4911:
  6250  12DF  2AE8               	goto	l6050
  6251  12E0                     u4910:
  6252                           	line	56
  6253                           	
  6254  12E0                     l6046:	
  6255  12E0  3000               	movlw	0x0
  6256  12E1  00AC               	movwf	(?___ftdiv)
  6257  12E2  3000               	movlw	0x0
  6258  12E3  00AD               	movwf	(?___ftdiv+1)
  6259  12E4  3000               	movlw	0x0
  6260  12E5  00AE               	movwf	(?___ftdiv+2)
  6261  12E6  2B94               	goto	l2321
  6262                           	
  6263  12E7                     l6048:	
  6264  12E7  2B94               	goto	l2321
  6265                           	
  6266  12E8                     l2320:	
  6267                           	line	57
  6268                           	
  6269  12E8                     l6050:	
  6270  12E8  082C               	movf	(___ftdiv@f2),w
  6271  12E9  00B2               	movwf	((??___ftdiv+0)+0)
  6272  12EA  082D               	movf	(___ftdiv@f2+1),w
  6273  12EB  00B3               	movwf	((??___ftdiv+0)+0+1)
  6274  12EC  082E               	movf	(___ftdiv@f2+2),w
  6275  12ED  00B4               	movwf	((??___ftdiv+0)+0+2)
  6276  12EE  1003               	clrc
  6277  12EF  0D33               	rlf	(??___ftdiv+0)+1,w
  6278  12F0  0D34               	rlf	(??___ftdiv+0)+2,w
  6279  12F1  00B5               	movwf	(??___ftdiv+3)+0
  6280  12F2  0835               	movf	(??___ftdiv+3)+0,w
  6281  12F3  00BB               	movwf	(___ftdiv@sign)
  6282  12F4  08BB               	movf	((___ftdiv@sign)),f
  6283  12F5  1D03               	skipz
  6284  12F6  2AF8               	goto	u4921
  6285  12F7  2AF9               	goto	u4920
  6286  12F8                     u4921:
  6287  12F8  2B01               	goto	l6056
  6288  12F9                     u4920:
  6289                           	line	58
  6290                           	
  6291  12F9                     l6052:	
  6292  12F9  3000               	movlw	0x0
  6293  12FA  00AC               	movwf	(?___ftdiv)
  6294  12FB  3000               	movlw	0x0
  6295  12FC  00AD               	movwf	(?___ftdiv+1)
  6296  12FD  3000               	movlw	0x0
  6297  12FE  00AE               	movwf	(?___ftdiv+2)
  6298  12FF  2B94               	goto	l2321
  6299                           	
  6300  1300                     l6054:	
  6301  1300  2B94               	goto	l2321
  6302                           	
  6303  1301                     l2322:	
  6304                           	line	59
  6305                           	
  6306  1301                     l6056:	
  6307  1301  3000               	movlw	0
  6308  1302  00B7               	movwf	(___ftdiv@f3)
  6309  1303  3000               	movlw	0
  6310  1304  00B8               	movwf	(___ftdiv@f3+1)
  6311  1305  3000               	movlw	0
  6312  1306  00B9               	movwf	(___ftdiv@f3+2)
  6313                           	line	60
  6314                           	
  6315  1307                     l6058:	
  6316  1307  3089               	movlw	(089h)
  6317  1308  073B               	addwf	(___ftdiv@sign),w
  6318  1309  00B2               	movwf	(??___ftdiv+0)+0
  6319  130A  0832               	movf	0+(??___ftdiv+0)+0,w
  6320  130B  02BA               	subwf	(___ftdiv@exp),f
  6321                           	line	61
  6322                           	
  6323  130C                     l6060:	
  6324  130C  082F               	movf	(___ftdiv@f1),w
  6325  130D  00B2               	movwf	((??___ftdiv+0)+0)
  6326  130E  0830               	movf	(___ftdiv@f1+1),w
  6327  130F  00B3               	movwf	((??___ftdiv+0)+0+1)
  6328  1310  0831               	movf	(___ftdiv@f1+2),w
  6329  1311  00B4               	movwf	((??___ftdiv+0)+0+2)
  6330  1312  3010               	movlw	010h
  6331  1313                     u4935:
  6332  1313  1003               	clrc
  6333  1314  0CB4               	rrf	(??___ftdiv+0)+2,f
  6334  1315  0CB3               	rrf	(??___ftdiv+0)+1,f
  6335  1316  0CB2               	rrf	(??___ftdiv+0)+0,f
  6336  1317                     u4930:
  6337  1317  3EFF               	addlw	-1
  6338  1318  1D03               	skipz
  6339  1319  2B13               	goto	u4935
  6340  131A  0832               	movf	0+(??___ftdiv+0)+0,w
  6341  131B  00B5               	movwf	(??___ftdiv+3)+0
  6342  131C  0835               	movf	(??___ftdiv+3)+0,w
  6343  131D  00BB               	movwf	(___ftdiv@sign)
  6344                           	line	62
  6345                           	
  6346  131E                     l6062:	
  6347  131E  082C               	movf	(___ftdiv@f2),w
  6348  131F  00B2               	movwf	((??___ftdiv+0)+0)
  6349  1320  082D               	movf	(___ftdiv@f2+1),w
  6350  1321  00B3               	movwf	((??___ftdiv+0)+0+1)
  6351  1322  082E               	movf	(___ftdiv@f2+2),w
  6352  1323  00B4               	movwf	((??___ftdiv+0)+0+2)
  6353  1324  3010               	movlw	010h
  6354  1325                     u4945:
  6355  1325  1003               	clrc
  6356  1326  0CB4               	rrf	(??___ftdiv+0)+2,f
  6357  1327  0CB3               	rrf	(??___ftdiv+0)+1,f
  6358  1328  0CB2               	rrf	(??___ftdiv+0)+0,f
  6359  1329                     u4940:
  6360  1329  3EFF               	addlw	-1
  6361  132A  1D03               	skipz
  6362  132B  2B25               	goto	u4945
  6363  132C  0832               	movf	0+(??___ftdiv+0)+0,w
  6364  132D  00B5               	movwf	(??___ftdiv+3)+0
  6365  132E  0835               	movf	(??___ftdiv+3)+0,w
  6366  132F  06BB               	xorwf	(___ftdiv@sign),f
  6367                           	line	63
  6368                           	
  6369  1330                     l6064:	
  6370  1330  3080               	movlw	(080h)
  6371  1331  00B2               	movwf	(??___ftdiv+0)+0
  6372  1332  0832               	movf	(??___ftdiv+0)+0,w
  6373  1333  05BB               	andwf	(___ftdiv@sign),f
  6374                           	line	64
  6375                           	
  6376  1334                     l6066:	
  6377  1334  17B0               	bsf	(___ftdiv@f1)+(15/8),(15)&7
  6378                           	line	65
  6379  1335  30FF               	movlw	0FFh
  6380  1336  05AF               	andwf	(___ftdiv@f1),f
  6381  1337  30FF               	movlw	0FFh
  6382  1338  05B0               	andwf	(___ftdiv@f1+1),f
  6383  1339  3000               	movlw	0
  6384  133A  05B1               	andwf	(___ftdiv@f1+2),f
  6385                           	line	66
  6386                           	
  6387  133B                     l6068:	
  6388  133B  17AD               	bsf	(___ftdiv@f2)+(15/8),(15)&7
  6389                           	line	67
  6390  133C  30FF               	movlw	0FFh
  6391  133D  05AC               	andwf	(___ftdiv@f2),f
  6392  133E  30FF               	movlw	0FFh
  6393  133F  05AD               	andwf	(___ftdiv@f2+1),f
  6394  1340  3000               	movlw	0
  6395  1341  05AE               	andwf	(___ftdiv@f2+2),f
  6396                           	line	68
  6397  1342  3018               	movlw	(018h)
  6398  1343  00B2               	movwf	(??___ftdiv+0)+0
  6399  1344  0832               	movf	(??___ftdiv+0)+0,w
  6400  1345  00B6               	movwf	(___ftdiv@cntr)
  6401  1346  2B47               	goto	l6070
  6402                           	line	69
  6403                           	
  6404  1347                     l2323:	
  6405                           	line	70
  6406                           	
  6407  1347                     l6070:	
  6408  1347  3001               	movlw	01h
  6409  1348                     u4955:
  6410  1348  1003               	clrc
  6411  1349  0DB7               	rlf	(___ftdiv@f3),f
  6412  134A  0DB8               	rlf	(___ftdiv@f3+1),f
  6413  134B  0DB9               	rlf	(___ftdiv@f3+2),f
  6414  134C  3EFF               	addlw	-1
  6415  134D  1D03               	skipz
  6416  134E  2B48               	goto	u4955
  6417                           	line	71
  6418                           	
  6419  134F                     l6072:	
  6420  134F  082E               	movf	(___ftdiv@f2+2),w
  6421  1350  0231               	subwf	(___ftdiv@f1+2),w
  6422  1351  1D03               	skipz
  6423  1352  2B59               	goto	u4965
  6424  1353  082D               	movf	(___ftdiv@f2+1),w
  6425  1354  0230               	subwf	(___ftdiv@f1+1),w
  6426  1355  1D03               	skipz
  6427  1356  2B59               	goto	u4965
  6428  1357  082C               	movf	(___ftdiv@f2),w
  6429  1358  022F               	subwf	(___ftdiv@f1),w
  6430  1359                     u4965:
  6431  1359  1C03               	skipc
  6432  135A  2B5C               	goto	u4961
  6433  135B  2B5D               	goto	u4960
  6434  135C                     u4961:
  6435  135C  2B69               	goto	l6078
  6436  135D                     u4960:
  6437                           	line	72
  6438                           	
  6439  135D                     l6074:	
  6440  135D  082C               	movf	(___ftdiv@f2),w
  6441  135E  02AF               	subwf	(___ftdiv@f1),f
  6442  135F  082D               	movf	(___ftdiv@f2+1),w
  6443  1360  1C03               	skipc
  6444  1361  0F2D               	incfsz	(___ftdiv@f2+1),w
  6445  1362  02B0               	subwf	(___ftdiv@f1+1),f
  6446  1363  082E               	movf	(___ftdiv@f2+2),w
  6447  1364  1C03               	skipc
  6448  1365  0A2E               	incf	(___ftdiv@f2+2),w
  6449  1366  02B1               	subwf	(___ftdiv@f1+2),f
  6450                           	line	73
  6451                           	
  6452  1367                     l6076:	
  6453  1367  1437               	bsf	(___ftdiv@f3)+(0/8),(0)&7
  6454  1368  2B69               	goto	l6078
  6455                           	line	74
  6456                           	
  6457  1369                     l2324:	
  6458                           	line	75
  6459                           	
  6460  1369                     l6078:	
  6461  1369  3001               	movlw	01h
  6462  136A                     u4975:
  6463  136A  1003               	clrc
  6464  136B  0DAF               	rlf	(___ftdiv@f1),f
  6465  136C  0DB0               	rlf	(___ftdiv@f1+1),f
  6466  136D  0DB1               	rlf	(___ftdiv@f1+2),f
  6467  136E  3EFF               	addlw	-1
  6468  136F  1D03               	skipz
  6469  1370  2B6A               	goto	u4975
  6470                           	line	76
  6471                           	
  6472  1371                     l6080:	
  6473  1371  3001               	movlw	low(01h)
  6474  1372  02B6               	subwf	(___ftdiv@cntr),f
  6475  1373  1D03               	btfss	status,2
  6476  1374  2B76               	goto	u4981
  6477  1375  2B77               	goto	u4980
  6478  1376                     u4981:
  6479  1376  2B47               	goto	l6070
  6480  1377                     u4980:
  6481  1377  2B78               	goto	l6082
  6482                           	
  6483  1378                     l2325:	
  6484                           	line	77
  6485                           	
  6486  1378                     l6082:	
  6487  1378  0837               	movf	(___ftdiv@f3),w
  6488  1379  00A0               	movwf	(?___ftpack)
  6489  137A  0838               	movf	(___ftdiv@f3+1),w
  6490  137B  00A1               	movwf	(?___ftpack+1)
  6491  137C  0839               	movf	(___ftdiv@f3+2),w
  6492  137D  00A2               	movwf	(?___ftpack+2)
  6493  137E  083A               	movf	(___ftdiv@exp),w
  6494  137F  00B2               	movwf	(??___ftdiv+0)+0
  6495  1380  0832               	movf	(??___ftdiv+0)+0,w
  6496  1381  00A3               	movwf	0+(?___ftpack)+03h
  6497  1382  083B               	movf	(___ftdiv@sign),w
  6498  1383  00B3               	movwf	(??___ftdiv+1)+0
  6499  1384  0833               	movf	(??___ftdiv+1)+0,w
  6500  1385  00A4               	movwf	0+(?___ftpack)+04h
  6501  1386  160A  118A  2250   	fcall	___ftpack
              160A  118A         
  6502  138B  1283               	bcf	status, 5	;RP0=0, select bank0
  6503  138C  1303               	bcf	status, 6	;RP1=0, select bank0
  6504  138D  0820               	movf	(0+(?___ftpack)),w
  6505  138E  00AC               	movwf	(?___ftdiv)
  6506  138F  0821               	movf	(1+(?___ftpack)),w
  6507  1390  00AD               	movwf	(?___ftdiv+1)
  6508  1391  0822               	movf	(2+(?___ftpack)),w
  6509  1392  00AE               	movwf	(?___ftdiv+2)
  6510  1393  2B94               	goto	l2321
  6511                           	
  6512  1394                     l6084:	
  6513                           	line	78
  6514                           	
  6515  1394                     l2321:	
  6516  1394  0008               	return
  6517                           	opt stack 0
  6518                           GLOBAL	__end_of___ftdiv
  6519  1395                     	__end_of___ftdiv:
  6520 ;; =============== function ___ftdiv ends ============
  6521                           
  6522                           	signat	___ftdiv,8315
  6523                           	global	___ftadd
  6524                           psect	text768,local,class=CODE,delta=2
  6525                           global __ptext768
  6526  1565                     __ptext768:
  6527                           
  6528 ;; *************** function ___ftadd *****************
  6529 ;; Defined at:
  6530 ;;		line 87 in file "C:\Program Files (x86)\HI-TECH Software\PICC\9.83\sources\ftadd.c"
  6531 ;; Parameters:    Size  Location     Type
  6532 ;;  f1              3   50[BANK0 ] float 
  6533 ;;  f2              3   53[BANK0 ] float 
  6534 ;; Auto vars:     Size  Location     Type
  6535 ;;  exp1            1   62[BANK0 ] unsigned char 
  6536 ;;  exp2            1   61[BANK0 ] unsigned char 
  6537 ;;  sign            1   60[BANK0 ] unsigned char 
  6538 ;; Return value:  Size  Location     Type
  6539 ;;                  3   50[BANK0 ] float 
  6540 ;; Registers used:
  6541 ;;		wreg, status,2, status,0, pclath, cstack
  6542 ;; Tracked objects:
  6543 ;;		On entry : 0/0
  6544 ;;		On exit  : 0/0
  6545 ;;		Unchanged: 0/0
  6546 ;; Data sizes:     COMMON   BANK0   BANK1   BANK3   BANK2
  6547 ;;      Params:         0       6       0       0       0
  6548 ;;      Locals:         0       3       0       0       0
  6549 ;;      Temps:          0       4       0       0       0
  6550 ;;      Totals:         0      13       0       0       0
  6551 ;;Total ram usage:       13 bytes
  6552 ;; Hardware stack levels used:    1
  6553 ;; Hardware stack levels required when called:    2
  6554 ;; This function calls:
  6555 ;;		___ftpack
  6556 ;; This function is called by:
  6557 ;;		_printf
  6558 ;;		___ftsub
  6559 ;; This function uses a non-reentrant model
  6560 ;;
  6561                           psect	text768
  6562                           	file	"C:\Program Files (x86)\HI-TECH Software\PICC\9.83\sources\ftadd.c"
  6563                           	line	87
  6564                           	global	__size_of___ftadd
  6565  0146                     	__size_of___ftadd	equ	__end_of___ftadd-___ftadd
  6566                           	
  6567  1565                     ___ftadd:	
  6568                           	opt	stack 3
  6569                           ; Regs used in ___ftadd: [wreg+status,2+status,0+pclath+cstack]
  6570                           	line	90
  6571                           	
  6572  1565                     l5974:	
  6573  1565  1283               	bcf	status, 5	;RP0=0, select bank0
  6574  1566  1303               	bcf	status, 6	;RP1=0, select bank0
  6575  1567  0852               	movf	(___ftadd@f1),w
  6576  1568  00D8               	movwf	((??___ftadd+0)+0)
  6577  1569  0853               	movf	(___ftadd@f1+1),w
  6578  156A  00D9               	movwf	((??___ftadd+0)+0+1)
  6579  156B  0854               	movf	(___ftadd@f1+2),w
  6580  156C  00DA               	movwf	((??___ftadd+0)+0+2)
  6581  156D  1003               	clrc
  6582  156E  0D59               	rlf	(??___ftadd+0)+1,w
  6583  156F  0D5A               	rlf	(??___ftadd+0)+2,w
  6584  1570  00DB               	movwf	(??___ftadd+3)+0
  6585  1571  085B               	movf	(??___ftadd+3)+0,w
  6586  1572  00DE               	movwf	(___ftadd@exp1)
  6587                           	line	91
  6588  1573  0855               	movf	(___ftadd@f2),w
  6589  1574  00D8               	movwf	((??___ftadd+0)+0)
  6590  1575  0856               	movf	(___ftadd@f2+1),w
  6591  1576  00D9               	movwf	((??___ftadd+0)+0+1)
  6592  1577  0857               	movf	(___ftadd@f2+2),w
  6593  1578  00DA               	movwf	((??___ftadd+0)+0+2)
  6594  1579  1003               	clrc
  6595  157A  0D59               	rlf	(??___ftadd+0)+1,w
  6596  157B  0D5A               	rlf	(??___ftadd+0)+2,w
  6597  157C  00DB               	movwf	(??___ftadd+3)+0
  6598  157D  085B               	movf	(??___ftadd+3)+0,w
  6599  157E  00DD               	movwf	(___ftadd@exp2)
  6600                           	line	92
  6601                           	
  6602  157F                     l5976:	
  6603  157F  085E               	movf	(___ftadd@exp1),w
  6604  1580  1D03               	skipz
  6605  1581  2D83               	goto	u4670
  6606  1582  2D94               	goto	l5982
  6607  1583                     u4670:
  6608                           	
  6609  1583                     l5978:	
  6610  1583  085D               	movf	(___ftadd@exp2),w
  6611  1584  025E               	subwf	(___ftadd@exp1),w
  6612  1585  1803               	skipnc
  6613  1586  2D88               	goto	u4681
  6614  1587  2D89               	goto	u4680
  6615  1588                     u4681:
  6616  1588  2D9C               	goto	l5986
  6617  1589                     u4680:
  6618                           	
  6619  1589                     l5980:	
  6620  1589  035E               	decf	(___ftadd@exp1),w
  6621  158A  3AFF               	xorlw	0ffh
  6622  158B  075D               	addwf	(___ftadd@exp2),w
  6623  158C  00D8               	movwf	(??___ftadd+0)+0
  6624  158D  3019               	movlw	(019h)
  6625  158E  0258               	subwf	0+(??___ftadd+0)+0,w
  6626  158F  1C03               	skipc
  6627  1590  2D92               	goto	u4691
  6628  1591  2D93               	goto	u4690
  6629  1592                     u4691:
  6630  1592  2D9C               	goto	l5986
  6631  1593                     u4690:
  6632  1593  2D94               	goto	l5982
  6633                           	
  6634  1594                     l2278:	
  6635                           	line	93
  6636                           	
  6637  1594                     l5982:	
  6638  1594  0855               	movf	(___ftadd@f2),w
  6639  1595  00D2               	movwf	(?___ftadd)
  6640  1596  0856               	movf	(___ftadd@f2+1),w
  6641  1597  00D3               	movwf	(?___ftadd+1)
  6642  1598  0857               	movf	(___ftadd@f2+2),w
  6643  1599  00D4               	movwf	(?___ftadd+2)
  6644  159A  2EAA               	goto	l2279
  6645                           	
  6646  159B                     l5984:	
  6647  159B  2EAA               	goto	l2279
  6648                           	
  6649  159C                     l2276:	
  6650                           	line	94
  6651                           	
  6652  159C                     l5986:	
  6653  159C  085D               	movf	(___ftadd@exp2),w
  6654  159D  1D03               	skipz
  6655  159E  2DA0               	goto	u4700
  6656  159F  2DB0               	goto	l2282
  6657  15A0                     u4700:
  6658                           	
  6659  15A0                     l5988:	
  6660  15A0  085E               	movf	(___ftadd@exp1),w
  6661  15A1  025D               	subwf	(___ftadd@exp2),w
  6662  15A2  1803               	skipnc
  6663  15A3  2DA5               	goto	u4711
  6664  15A4  2DA6               	goto	u4710
  6665  15A5                     u4711:
  6666  15A5  2DB1               	goto	l5992
  6667  15A6                     u4710:
  6668                           	
  6669  15A6                     l5990:	
  6670  15A6  035D               	decf	(___ftadd@exp2),w
  6671  15A7  3AFF               	xorlw	0ffh
  6672  15A8  075E               	addwf	(___ftadd@exp1),w
  6673  15A9  00D8               	movwf	(??___ftadd+0)+0
  6674  15AA  3019               	movlw	(019h)
  6675  15AB  0258               	subwf	0+(??___ftadd+0)+0,w
  6676  15AC  1C03               	skipc
  6677  15AD  2DAF               	goto	u4721
  6678  15AE  2DB0               	goto	u4720
  6679  15AF                     u4721:
  6680  15AF  2DB1               	goto	l5992
  6681  15B0                     u4720:
  6682                           	
  6683  15B0                     l2282:	
  6684                           	line	95
  6685  15B0  2EAA               	goto	l2279
  6686                           	
  6687  15B1                     l2280:	
  6688                           	line	96
  6689                           	
  6690  15B1                     l5992:	
  6691  15B1  3006               	movlw	(06h)
  6692  15B2  00D8               	movwf	(??___ftadd+0)+0
  6693  15B3  0858               	movf	(??___ftadd+0)+0,w
  6694  15B4  00DC               	movwf	(___ftadd@sign)
  6695                           	line	97
  6696                           	
  6697  15B5                     l5994:	
  6698  15B5  1FD4               	btfss	(___ftadd@f1+2),(23)&7
  6699  15B6  2DB8               	goto	u4731
  6700  15B7  2DB9               	goto	u4730
  6701  15B8                     u4731:
  6702  15B8  2DBA               	goto	l2283
  6703  15B9                     u4730:
  6704                           	line	98
  6705                           	
  6706  15B9                     l5996:	
  6707  15B9  17DC               	bsf	(___ftadd@sign)+(7/8),(7)&7
  6708                           	
  6709  15BA                     l2283:	
  6710                           	line	99
  6711  15BA  1FD7               	btfss	(___ftadd@f2+2),(23)&7
  6712  15BB  2DBD               	goto	u4741
  6713  15BC  2DBE               	goto	u4740
  6714  15BD                     u4741:
  6715  15BD  2DBF               	goto	l2284
  6716  15BE                     u4740:
  6717                           	line	100
  6718                           	
  6719  15BE                     l5998:	
  6720  15BE  175C               	bsf	(___ftadd@sign)+(6/8),(6)&7
  6721                           	
  6722  15BF                     l2284:	
  6723                           	line	101
  6724  15BF  17D3               	bsf	(___ftadd@f1)+(15/8),(15)&7
  6725                           	line	102
  6726                           	
  6727  15C0                     l6000:	
  6728  15C0  30FF               	movlw	0FFh
  6729  15C1  05D2               	andwf	(___ftadd@f1),f
  6730  15C2  30FF               	movlw	0FFh
  6731  15C3  05D3               	andwf	(___ftadd@f1+1),f
  6732  15C4  3000               	movlw	0
  6733  15C5  05D4               	andwf	(___ftadd@f1+2),f
  6734                           	line	103
  6735                           	
  6736  15C6                     l6002:	
  6737  15C6  17D6               	bsf	(___ftadd@f2)+(15/8),(15)&7
  6738                           	line	104
  6739  15C7  30FF               	movlw	0FFh
  6740  15C8  05D5               	andwf	(___ftadd@f2),f
  6741  15C9  30FF               	movlw	0FFh
  6742  15CA  05D6               	andwf	(___ftadd@f2+1),f
  6743  15CB  3000               	movlw	0
  6744  15CC  05D7               	andwf	(___ftadd@f2+2),f
  6745                           	line	106
  6746  15CD  085D               	movf	(___ftadd@exp2),w
  6747  15CE  025E               	subwf	(___ftadd@exp1),w
  6748  15CF  1803               	skipnc
  6749  15D0  2DD2               	goto	u4751
  6750  15D1  2DD3               	goto	u4750
  6751  15D2                     u4751:
  6752  15D2  2E04               	goto	l6014
  6753  15D3                     u4750:
  6754  15D3  2DD4               	goto	l6004
  6755                           	line	109
  6756                           	
  6757  15D4                     l2286:	
  6758                           	line	110
  6759                           	
  6760  15D4                     l6004:	
  6761  15D4  3001               	movlw	01h
  6762  15D5                     u4765:
  6763  15D5  1003               	clrc
  6764  15D6  0DD5               	rlf	(___ftadd@f2),f
  6765  15D7  0DD6               	rlf	(___ftadd@f2+1),f
  6766  15D8  0DD7               	rlf	(___ftadd@f2+2),f
  6767  15D9  3EFF               	addlw	-1
  6768  15DA  1D03               	skipz
  6769  15DB  2DD5               	goto	u4765
  6770                           	line	111
  6771  15DC  3001               	movlw	low(01h)
  6772  15DD  02DD               	subwf	(___ftadd@exp2),f
  6773                           	line	112
  6774                           	
  6775  15DE                     l6006:	
  6776  15DE  085D               	movf	(___ftadd@exp2),w
  6777  15DF  065E               	xorwf	(___ftadd@exp1),w
  6778  15E0  1903               	skipnz
  6779  15E1  2DE3               	goto	u4771
  6780  15E2  2DE4               	goto	u4770
  6781  15E3                     u4771:
  6782  15E3  2DFC               	goto	l6012
  6783  15E4                     u4770:
  6784                           	
  6785  15E4                     l6008:	
  6786  15E4  3001               	movlw	low(01h)
  6787  15E5  02DC               	subwf	(___ftadd@sign),f
  6788  15E6  085C               	movf	((___ftadd@sign)),w
  6789  15E7  3907               	andlw	07h
  6790  15E8  1D03               	btfss	status,2
  6791  15E9  2DEB               	goto	u4781
  6792  15EA  2DEC               	goto	u4780
  6793  15EB                     u4781:
  6794  15EB  2DD4               	goto	l6004
  6795  15EC                     u4780:
  6796  15EC  2DFC               	goto	l6012
  6797                           	
  6798  15ED                     l2288:	
  6799  15ED  2DFC               	goto	l6012
  6800                           	
  6801  15EE                     l2289:	
  6802                           	line	113
  6803  15EE  2DFC               	goto	l6012
  6804                           	
  6805  15EF                     l2291:	
  6806                           	line	114
  6807                           	
  6808  15EF                     l6010:	
  6809  15EF  3001               	movlw	01h
  6810  15F0                     u4795:
  6811  15F0  1003               	clrc
  6812  15F1  0CD4               	rrf	(___ftadd@f1+2),f
  6813  15F2  0CD3               	rrf	(___ftadd@f1+1),f
  6814  15F3  0CD2               	rrf	(___ftadd@f1),f
  6815  15F4  3EFF               	addlw	-1
  6816  15F5  1D03               	skipz
  6817  15F6  2DF0               	goto	u4795
  6818                           
  6819                           	line	115
  6820  15F7  3001               	movlw	(01h)
  6821  15F8  00D8               	movwf	(??___ftadd+0)+0
  6822  15F9  0858               	movf	(??___ftadd+0)+0,w
  6823  15FA  07DE               	addwf	(___ftadd@exp1),f
  6824  15FB  2DFC               	goto	l6012
  6825                           	line	116
  6826                           	
  6827  15FC                     l2290:	
  6828                           	line	113
  6829                           	
  6830  15FC                     l6012:	
  6831  15FC  085E               	movf	(___ftadd@exp1),w
  6832  15FD  065D               	xorwf	(___ftadd@exp2),w
  6833  15FE  1D03               	skipz
  6834  15FF  2E01               	goto	u4801
  6835  1600  2E02               	goto	u4800
  6836  1601                     u4801:
  6837  1601  2DEF               	goto	l6010
  6838  1602                     u4800:
  6839  1602  2E3B               	goto	l2293
  6840                           	
  6841  1603                     l2292:	
  6842                           	line	117
  6843  1603  2E3B               	goto	l2293
  6844                           	
  6845  1604                     l2285:	
  6846                           	
  6847  1604                     l6014:	
  6848  1604  085E               	movf	(___ftadd@exp1),w
  6849  1605  025D               	subwf	(___ftadd@exp2),w
  6850  1606  1803               	skipnc
  6851  1607  2E09               	goto	u4811
  6852  1608  2E0A               	goto	u4810
  6853  1609                     u4811:
  6854  1609  2E3B               	goto	l2293
  6855  160A                     u4810:
  6856  160A  2E0B               	goto	l6016
  6857                           	line	120
  6858                           	
  6859  160B                     l2295:	
  6860                           	line	121
  6861                           	
  6862  160B                     l6016:	
  6863  160B  3001               	movlw	01h
  6864  160C                     u4825:
  6865  160C  1003               	clrc
  6866  160D  0DD2               	rlf	(___ftadd@f1),f
  6867  160E  0DD3               	rlf	(___ftadd@f1+1),f
  6868  160F  0DD4               	rlf	(___ftadd@f1+2),f
  6869  1610  3EFF               	addlw	-1
  6870  1611  1D03               	skipz
  6871  1612  2E0C               	goto	u4825
  6872                           	line	122
  6873  1613  3001               	movlw	low(01h)
  6874  1614  02DE               	subwf	(___ftadd@exp1),f
  6875                           	line	123
  6876                           	
  6877  1615                     l6018:	
  6878  1615  085D               	movf	(___ftadd@exp2),w
  6879  1616  065E               	xorwf	(___ftadd@exp1),w
  6880  1617  1903               	skipnz
  6881  1618  2E1A               	goto	u4831
  6882  1619  2E1B               	goto	u4830
  6883  161A                     u4831:
  6884  161A  2E33               	goto	l6024
  6885  161B                     u4830:
  6886                           	
  6887  161B                     l6020:	
  6888  161B  3001               	movlw	low(01h)
  6889  161C  02DC               	subwf	(___ftadd@sign),f
  6890  161D  085C               	movf	((___ftadd@sign)),w
  6891  161E  3907               	andlw	07h
  6892  161F  1D03               	btfss	status,2
  6893  1620  2E22               	goto	u4841
  6894  1621  2E23               	goto	u4840
  6895  1622                     u4841:
  6896  1622  2E0B               	goto	l6016
  6897  1623                     u4840:
  6898  1623  2E33               	goto	l6024
  6899                           	
  6900  1624                     l2297:	
  6901  1624  2E33               	goto	l6024
  6902                           	
  6903  1625                     l2298:	
  6904                           	line	124
  6905  1625  2E33               	goto	l6024
  6906                           	
  6907  1626                     l2300:	
  6908                           	line	125
  6909                           	
  6910  1626                     l6022:	
  6911  1626  3001               	movlw	01h
  6912  1627                     u4855:
  6913  1627  1003               	clrc
  6914  1628  0CD7               	rrf	(___ftadd@f2+2),f
  6915  1629  0CD6               	rrf	(___ftadd@f2+1),f
  6916  162A  0CD5               	rrf	(___ftadd@f2),f
  6917  162B  3EFF               	addlw	-1
  6918  162C  1D03               	skipz
  6919  162D  2E27               	goto	u4855
  6920                           
  6921                           	line	126
  6922  162E  3001               	movlw	(01h)
  6923  162F  00D8               	movwf	(??___ftadd+0)+0
  6924  1630  0858               	movf	(??___ftadd+0)+0,w
  6925  1631  07DD               	addwf	(___ftadd@exp2),f
  6926  1632  2E33               	goto	l6024
  6927                           	line	127
  6928                           	
  6929  1633                     l2299:	
  6930                           	line	124
  6931                           	
  6932  1633                     l6024:	
  6933  1633  085E               	movf	(___ftadd@exp1),w
  6934  1634  065D               	xorwf	(___ftadd@exp2),w
  6935  1635  1D03               	skipz
  6936  1636  2E38               	goto	u4861
  6937  1637  2E39               	goto	u4860
  6938  1638                     u4861:
  6939  1638  2E26               	goto	l6022
  6940  1639                     u4860:
  6941  1639  2E3B               	goto	l2293
  6942                           	
  6943  163A                     l2301:	
  6944  163A  2E3B               	goto	l2293
  6945                           	line	128
  6946                           	
  6947  163B                     l2294:	
  6948                           	line	129
  6949                           	
  6950  163B                     l2293:	
  6951  163B  1FDC               	btfss	(___ftadd@sign),(7)&7
  6952  163C  2E3E               	goto	u4871
  6953  163D  2E3F               	goto	u4870
  6954  163E                     u4871:
  6955  163E  2E50               	goto	l6028
  6956  163F                     u4870:
  6957                           	line	131
  6958                           	
  6959  163F                     l6026:	
  6960  163F  30FF               	movlw	0FFh
  6961  1640  06D2               	xorwf	(___ftadd@f1),f
  6962  1641  30FF               	movlw	0FFh
  6963  1642  06D3               	xorwf	(___ftadd@f1+1),f
  6964  1643  30FF               	movlw	0FFh
  6965  1644  06D4               	xorwf	(___ftadd@f1+2),f
  6966                           	line	132
  6967  1645  3001               	movlw	01h
  6968  1646  07D2               	addwf	(___ftadd@f1),f
  6969  1647  3000               	movlw	0
  6970  1648  1803               	skipnc
  6971  1649  3001               movlw 1
  6972  164A  07D3               	addwf	(___ftadd@f1+1),f
  6973  164B  3000               	movlw	0
  6974  164C  1803               	skipnc
  6975  164D  3001               movlw 1
  6976  164E  07D4               	addwf	(___ftadd@f1+2),f
  6977  164F  2E50               	goto	l6028
  6978                           	line	133
  6979                           	
  6980  1650                     l2302:	
  6981                           	line	134
  6982                           	
  6983  1650                     l6028:	
  6984  1650  1F5C               	btfss	(___ftadd@sign),(6)&7
  6985  1651  2E53               	goto	u4881
  6986  1652  2E54               	goto	u4880
  6987  1653                     u4881:
  6988  1653  2E65               	goto	l6032
  6989  1654                     u4880:
  6990                           	line	136
  6991                           	
  6992  1654                     l6030:	
  6993  1654  30FF               	movlw	0FFh
  6994  1655  06D5               	xorwf	(___ftadd@f2),f
  6995  1656  30FF               	movlw	0FFh
  6996  1657  06D6               	xorwf	(___ftadd@f2+1),f
  6997  1658  30FF               	movlw	0FFh
  6998  1659  06D7               	xorwf	(___ftadd@f2+2),f
  6999                           	line	137
  7000  165A  3001               	movlw	01h
  7001  165B  07D5               	addwf	(___ftadd@f2),f
  7002  165C  3000               	movlw	0
  7003  165D  1803               	skipnc
  7004  165E  3001               movlw 1
  7005  165F  07D6               	addwf	(___ftadd@f2+1),f
  7006  1660  3000               	movlw	0
  7007  1661  1803               	skipnc
  7008  1662  3001               movlw 1
  7009  1663  07D7               	addwf	(___ftadd@f2+2),f
  7010  1664  2E65               	goto	l6032
  7011                           	line	138
  7012                           	
  7013  1665                     l2303:	
  7014                           	line	139
  7015                           	
  7016  1665                     l6032:	
  7017  1665  01DC               	clrf	(___ftadd@sign)
  7018                           	line	140
  7019  1666  0852               	movf	(___ftadd@f1),w
  7020  1667  07D5               	addwf	(___ftadd@f2),f
  7021  1668  0853               	movf	(___ftadd@f1+1),w
  7022  1669  1103               	clrz
  7023  166A  1803               	skipnc
  7024  166B  0A53               	incf	(___ftadd@f1+1),w
  7025  166C  1903               	skipnz
  7026  166D  2E6F               	goto	u4891
  7027  166E  07D6               	addwf	(___ftadd@f2+1),f
  7028  166F                     u4891:
  7029  166F  0854               	movf	(___ftadd@f1+2),w
  7030  1670  1103               	clrz
  7031  1671  1803               	skipnc
  7032  1672  0A54               	incf	(___ftadd@f1+2),w
  7033  1673  1903               	skipnz
  7034  1674  2E76               	goto	u4892
  7035  1675  07D7               	addwf	(___ftadd@f2+2),f
  7036  1676                     u4892:
  7037                           
  7038                           	line	141
  7039                           	
  7040  1676                     l6034:	
  7041  1676  1FD7               	btfss	(___ftadd@f2+2),(23)&7
  7042  1677  2E79               	goto	u4901
  7043  1678  2E7A               	goto	u4900
  7044  1679                     u4901:
  7045  1679  2E8E               	goto	l6040
  7046  167A                     u4900:
  7047                           	line	142
  7048                           	
  7049  167A                     l6036:	
  7050  167A  30FF               	movlw	0FFh
  7051  167B  06D5               	xorwf	(___ftadd@f2),f
  7052  167C  30FF               	movlw	0FFh
  7053  167D  06D6               	xorwf	(___ftadd@f2+1),f
  7054  167E  30FF               	movlw	0FFh
  7055  167F  06D7               	xorwf	(___ftadd@f2+2),f
  7056                           	line	143
  7057  1680  3001               	movlw	01h
  7058  1681  07D5               	addwf	(___ftadd@f2),f
  7059  1682  3000               	movlw	0
  7060  1683  1803               	skipnc
  7061  1684  3001               movlw 1
  7062  1685  07D6               	addwf	(___ftadd@f2+1),f
  7063  1686  3000               	movlw	0
  7064  1687  1803               	skipnc
  7065  1688  3001               movlw 1
  7066  1689  07D7               	addwf	(___ftadd@f2+2),f
  7067                           	line	144
  7068                           	
  7069  168A                     l6038:	
  7070  168A  01DC               	clrf	(___ftadd@sign)
  7071  168B  1403               	bsf	status,0
  7072  168C  0DDC               	rlf	(___ftadd@sign),f
  7073  168D  2E8E               	goto	l6040
  7074                           	line	145
  7075                           	
  7076  168E                     l2304:	
  7077                           	line	146
  7078                           	
  7079  168E                     l6040:	
  7080  168E  0855               	movf	(___ftadd@f2),w
  7081  168F  00A0               	movwf	(?___ftpack)
  7082  1690  0856               	movf	(___ftadd@f2+1),w
  7083  1691  00A1               	movwf	(?___ftpack+1)
  7084  1692  0857               	movf	(___ftadd@f2+2),w
  7085  1693  00A2               	movwf	(?___ftpack+2)
  7086  1694  085E               	movf	(___ftadd@exp1),w
  7087  1695  00D8               	movwf	(??___ftadd+0)+0
  7088  1696  0858               	movf	(??___ftadd+0)+0,w
  7089  1697  00A3               	movwf	0+(?___ftpack)+03h
  7090  1698  085C               	movf	(___ftadd@sign),w
  7091  1699  00D9               	movwf	(??___ftadd+1)+0
  7092  169A  0859               	movf	(??___ftadd+1)+0,w
  7093  169B  00A4               	movwf	0+(?___ftpack)+04h
  7094  169C  160A  118A  2250   	fcall	___ftpack
              160A  118A         
  7095  16A1  1283               	bcf	status, 5	;RP0=0, select bank0
  7096  16A2  1303               	bcf	status, 6	;RP1=0, select bank0
  7097  16A3  0820               	movf	(0+(?___ftpack)),w
  7098  16A4  00D2               	movwf	(?___ftadd)
  7099  16A5  0821               	movf	(1+(?___ftpack)),w
  7100  16A6  00D3               	movwf	(?___ftadd+1)
  7101  16A7  0822               	movf	(2+(?___ftpack)),w
  7102  16A8  00D4               	movwf	(?___ftadd+2)
  7103  16A9  2EAA               	goto	l2279
  7104                           	
  7105  16AA                     l6042:	
  7106                           	line	148
  7107                           	
  7108  16AA                     l2279:	
  7109  16AA  0008               	return
  7110                           	opt stack 0
  7111                           GLOBAL	__end_of___ftadd
  7112  16AB                     	__end_of___ftadd:
  7113 ;; =============== function ___ftadd ends ============
  7114                           
  7115                           	signat	___ftadd,8315
  7116                           	global	___awmod
  7117                           psect	text769,local,class=CODE,delta=2
  7118                           global __ptext769
  7119  1F98                     __ptext769:
  7120                           
  7121 ;; *************** function ___awmod *****************
  7122 ;; Defined at:
  7123 ;;		line 5 in file "C:\Program Files (x86)\HI-TECH Software\PICC\9.83\sources\awmod.c"
  7124 ;; Parameters:    Size  Location     Type
  7125 ;;  divisor         2    0[BANK0 ] int 
  7126 ;;  dividend        2    2[BANK0 ] int 
  7127 ;; Auto vars:     Size  Location     Type
  7128 ;;  sign            1    6[BANK0 ] unsigned char 
  7129 ;;  counter         1    5[BANK0 ] unsigned char 
  7130 ;; Return value:  Size  Location     Type
  7131 ;;                  2    0[BANK0 ] int 
  7132 ;; Registers used:
  7133 ;;		wreg, status,2, status,0
  7134 ;; Tracked objects:
  7135 ;;		On entry : 0/0
  7136 ;;		On exit  : 0/0
  7137 ;;		Unchanged: 0/0
  7138 ;; Data sizes:     COMMON   BANK0   BANK1   BANK3   BANK2
  7139 ;;      Params:         0       4       0       0       0
  7140 ;;      Locals:         0       2       0       0       0
  7141 ;;      Temps:          0       1       0       0       0
  7142 ;;      Totals:         0       7       0       0       0
  7143 ;;Total ram usage:        7 bytes
  7144 ;; Hardware stack levels used:    1
  7145 ;; Hardware stack levels required when called:    1
  7146 ;; This function calls:
  7147 ;;		Nothing
  7148 ;; This function is called by:
  7149 ;;		_fround
  7150 ;;		_scale
  7151 ;; This function uses a non-reentrant model
  7152 ;;
  7153                           psect	text769
  7154                           	file	"C:\Program Files (x86)\HI-TECH Software\PICC\9.83\sources\awmod.c"
  7155                           	line	5
  7156                           	global	__size_of___awmod
  7157  0068                     	__size_of___awmod	equ	__end_of___awmod-___awmod
  7158                           	
  7159  1F98                     ___awmod:	
  7160                           	opt	stack 4
  7161                           ; Regs used in ___awmod: [wreg+status,2+status,0]
  7162                           	line	8
  7163                           	
  7164  1F98                     l5908:	
  7165  1F98  1283               	bcf	status, 5	;RP0=0, select bank0
  7166  1F99  1303               	bcf	status, 6	;RP1=0, select bank0
  7167  1F9A  01A6               	clrf	(___awmod@sign)
  7168                           	line	9
  7169  1F9B  1FA3               	btfss	(___awmod@dividend+1),7
  7170  1F9C  2F9E               	goto	u4541
  7171  1F9D  2F9F               	goto	u4540
  7172  1F9E                     u4541:
  7173  1F9E  2FA8               	goto	l5912
  7174  1F9F                     u4540:
  7175                           	line	10
  7176                           	
  7177  1F9F                     l5910:	
  7178  1F9F  09A2               	comf	(___awmod@dividend),f
  7179  1FA0  09A3               	comf	(___awmod@dividend+1),f
  7180  1FA1  0AA2               	incf	(___awmod@dividend),f
  7181  1FA2  1903               	skipnz
  7182  1FA3  0AA3               	incf	(___awmod@dividend+1),f
  7183                           	line	11
  7184  1FA4  01A6               	clrf	(___awmod@sign)
  7185  1FA5  1403               	bsf	status,0
  7186  1FA6  0DA6               	rlf	(___awmod@sign),f
  7187  1FA7  2FA8               	goto	l5912
  7188                           	line	12
  7189                           	
  7190  1FA8                     l2440:	
  7191                           	line	13
  7192                           	
  7193  1FA8                     l5912:	
  7194  1FA8  1FA1               	btfss	(___awmod@divisor+1),7
  7195  1FA9  2FAB               	goto	u4551
  7196  1FAA  2FAC               	goto	u4550
  7197  1FAB                     u4551:
  7198  1FAB  2FB2               	goto	l5916
  7199  1FAC                     u4550:
  7200                           	line	14
  7201                           	
  7202  1FAC                     l5914:	
  7203  1FAC  09A0               	comf	(___awmod@divisor),f
  7204  1FAD  09A1               	comf	(___awmod@divisor+1),f
  7205  1FAE  0AA0               	incf	(___awmod@divisor),f
  7206  1FAF  1903               	skipnz
  7207  1FB0  0AA1               	incf	(___awmod@divisor+1),f
  7208  1FB1  2FB2               	goto	l5916
  7209                           	
  7210  1FB2                     l2441:	
  7211                           	line	15
  7212                           	
  7213  1FB2                     l5916:	
  7214  1FB2  0821               	movf	(___awmod@divisor+1),w
  7215  1FB3  0420               	iorwf	(___awmod@divisor),w
  7216  1FB4  1903               	skipnz
  7217  1FB5  2FB7               	goto	u4561
  7218  1FB6  2FB8               	goto	u4560
  7219  1FB7                     u4561:
  7220  1FB7  2FEE               	goto	l5934
  7221  1FB8                     u4560:
  7222                           	line	16
  7223                           	
  7224  1FB8                     l5918:	
  7225  1FB8  01A5               	clrf	(___awmod@counter)
  7226  1FB9  1403               	bsf	status,0
  7227  1FBA  0DA5               	rlf	(___awmod@counter),f
  7228                           	line	17
  7229  1FBB  2FC8               	goto	l5924
  7230                           	
  7231  1FBC                     l2444:	
  7232                           	line	18
  7233                           	
  7234  1FBC                     l5920:	
  7235  1FBC  3001               	movlw	01h
  7236                           	
  7237  1FBD                     u4575:
  7238  1FBD  1003               	clrc
  7239  1FBE  0DA0               	rlf	(___awmod@divisor),f
  7240  1FBF  0DA1               	rlf	(___awmod@divisor+1),f
  7241  1FC0  3EFF               	addlw	-1
  7242  1FC1  1D03               	skipz
  7243  1FC2  2FBD               	goto	u4575
  7244                           	line	19
  7245                           	
  7246  1FC3                     l5922:	
  7247  1FC3  3001               	movlw	(01h)
  7248  1FC4  00A4               	movwf	(??___awmod+0)+0
  7249  1FC5  0824               	movf	(??___awmod+0)+0,w
  7250  1FC6  07A5               	addwf	(___awmod@counter),f
  7251  1FC7  2FC8               	goto	l5924
  7252                           	line	20
  7253                           	
  7254  1FC8                     l2443:	
  7255                           	line	17
  7256                           	
  7257  1FC8                     l5924:	
  7258  1FC8  1FA1               	btfss	(___awmod@divisor+1),(15)&7
  7259  1FC9  2FCB               	goto	u4581
  7260  1FCA  2FCC               	goto	u4580
  7261  1FCB                     u4581:
  7262  1FCB  2FBC               	goto	l5920
  7263  1FCC                     u4580:
  7264  1FCC  2FCE               	goto	l5926
  7265                           	
  7266  1FCD                     l2445:	
  7267  1FCD  2FCE               	goto	l5926
  7268                           	line	21
  7269                           	
  7270  1FCE                     l2446:	
  7271                           	line	22
  7272                           	
  7273  1FCE                     l5926:	
  7274  1FCE  0821               	movf	(___awmod@divisor+1),w
  7275  1FCF  0223               	subwf	(___awmod@dividend+1),w
  7276  1FD0  1D03               	skipz
  7277  1FD1  2FD4               	goto	u4595
  7278  1FD2  0820               	movf	(___awmod@divisor),w
  7279  1FD3  0222               	subwf	(___awmod@dividend),w
  7280  1FD4                     u4595:
  7281  1FD4  1C03               	skipc
  7282  1FD5  2FD7               	goto	u4591
  7283  1FD6  2FD8               	goto	u4590
  7284  1FD7                     u4591:
  7285  1FD7  2FDF               	goto	l5930
  7286  1FD8                     u4590:
  7287                           	line	23
  7288                           	
  7289  1FD8                     l5928:	
  7290  1FD8  0820               	movf	(___awmod@divisor),w
  7291  1FD9  02A2               	subwf	(___awmod@dividend),f
  7292  1FDA  0821               	movf	(___awmod@divisor+1),w
  7293  1FDB  1C03               	skipc
  7294  1FDC  03A3               	decf	(___awmod@dividend+1),f
  7295  1FDD  02A3               	subwf	(___awmod@dividend+1),f
  7296  1FDE  2FDF               	goto	l5930
  7297                           	
  7298  1FDF                     l2447:	
  7299                           	line	24
  7300                           	
  7301  1FDF                     l5930:	
  7302  1FDF  3001               	movlw	01h
  7303                           	
  7304  1FE0                     u4605:
  7305  1FE0  1003               	clrc
  7306  1FE1  0CA1               	rrf	(___awmod@divisor+1),f
  7307  1FE2  0CA0               	rrf	(___awmod@divisor),f
  7308  1FE3  3EFF               	addlw	-1
  7309  1FE4  1D03               	skipz
  7310  1FE5  2FE0               	goto	u4605
  7311                           	line	25
  7312                           	
  7313  1FE6                     l5932:	
  7314  1FE6  3001               	movlw	low(01h)
  7315  1FE7  02A5               	subwf	(___awmod@counter),f
  7316  1FE8  1D03               	btfss	status,2
  7317  1FE9  2FEB               	goto	u4611
  7318  1FEA  2FEC               	goto	u4610
  7319  1FEB                     u4611:
  7320  1FEB  2FCE               	goto	l5926
  7321  1FEC                     u4610:
  7322  1FEC  2FEE               	goto	l5934
  7323                           	
  7324  1FED                     l2448:	
  7325  1FED  2FEE               	goto	l5934
  7326                           	line	26
  7327                           	
  7328  1FEE                     l2442:	
  7329                           	line	27
  7330                           	
  7331  1FEE                     l5934:	
  7332  1FEE  0826               	movf	(___awmod@sign),w
  7333  1FEF  1D03               	skipz
  7334  1FF0  2FF2               	goto	u4620
  7335  1FF1  2FF8               	goto	l5938
  7336  1FF2                     u4620:
  7337                           	line	28
  7338                           	
  7339  1FF2                     l5936:	
  7340  1FF2  09A2               	comf	(___awmod@dividend),f
  7341  1FF3  09A3               	comf	(___awmod@dividend+1),f
  7342  1FF4  0AA2               	incf	(___awmod@dividend),f
  7343  1FF5  1903               	skipnz
  7344  1FF6  0AA3               	incf	(___awmod@dividend+1),f
  7345  1FF7  2FF8               	goto	l5938
  7346                           	
  7347  1FF8                     l2449:	
  7348                           	line	29
  7349                           	
  7350  1FF8                     l5938:	
  7351  1FF8  0823               	movf	(___awmod@dividend+1),w
  7352  1FF9  01A1               	clrf	(?___awmod+1)
  7353  1FFA  07A1               	addwf	(?___awmod+1)
  7354  1FFB  0822               	movf	(___awmod@dividend),w
  7355  1FFC  01A0               	clrf	(?___awmod)
  7356  1FFD  07A0               	addwf	(?___awmod)
  7357                           
  7358  1FFE  2FFF               	goto	l2450
  7359                           	
  7360  1FFF                     l5940:	
  7361                           	line	30
  7362                           	
  7363  1FFF                     l2450:	
  7364  1FFF  0008               	return
  7365                           	opt stack 0
  7366                           GLOBAL	__end_of___awmod
  7367  2000                     	__end_of___awmod:
  7368 ;; =============== function ___awmod ends ============
  7369                           
  7370                           	signat	___awmod,8314
  7371                           	global	___lldiv
  7372                           psect	text770,local,class=CODE,delta=2
  7373                           global __ptext770
  7374  116A                     __ptext770:
  7375                           
  7376 ;; *************** function ___lldiv *****************
  7377 ;; Defined at:
  7378 ;;		line 5 in file "C:\Program Files (x86)\HI-TECH Software\PICC\9.83\sources\lldiv.c"
  7379 ;; Parameters:    Size  Location     Type
  7380 ;;  divisor         4    0[BANK0 ] unsigned long 
  7381 ;;  dividend        4    4[BANK0 ] unsigned long 
  7382 ;; Auto vars:     Size  Location     Type
  7383 ;;  quotient        4    9[BANK0 ] unsigned long 
  7384 ;;  counter         1   13[BANK0 ] unsigned char 
  7385 ;; Return value:  Size  Location     Type
  7386 ;;                  4    0[BANK0 ] unsigned long 
  7387 ;; Registers used:
  7388 ;;		wreg, status,2, status,0
  7389 ;; Tracked objects:
  7390 ;;		On entry : 0/0
  7391 ;;		On exit  : 0/0
  7392 ;;		Unchanged: 0/0
  7393 ;; Data sizes:     COMMON   BANK0   BANK1   BANK3   BANK2
  7394 ;;      Params:         0       8       0       0       0
  7395 ;;      Locals:         0       5       0       0       0
  7396 ;;      Temps:          0       1       0       0       0
  7397 ;;      Totals:         0      14       0       0       0
  7398 ;;Total ram usage:       14 bytes
  7399 ;; Hardware stack levels used:    1
  7400 ;; Hardware stack levels required when called:    1
  7401 ;; This function calls:
  7402 ;;		Nothing
  7403 ;; This function is called by:
  7404 ;;		_printf
  7405 ;; This function uses a non-reentrant model
  7406 ;;
  7407                           psect	text770
  7408                           	file	"C:\Program Files (x86)\HI-TECH Software\PICC\9.83\sources\lldiv.c"
  7409                           	line	5
  7410                           	global	__size_of___lldiv
  7411  0070                     	__size_of___lldiv	equ	__end_of___lldiv-___lldiv
  7412                           	
  7413  116A                     ___lldiv:	
  7414                           	opt	stack 5
  7415                           ; Regs used in ___lldiv: [wreg+status,2+status,0]
  7416                           	line	9
  7417                           	
  7418  116A                     l5884:	
  7419  116A  3000               	movlw	0
  7420  116B  1283               	bcf	status, 5	;RP0=0, select bank0
  7421  116C  1303               	bcf	status, 6	;RP1=0, select bank0
  7422  116D  00AC               	movwf	(___lldiv@quotient+3)
  7423  116E  3000               	movlw	0
  7424  116F  00AB               	movwf	(___lldiv@quotient+2)
  7425  1170  3000               	movlw	0
  7426  1171  00AA               	movwf	(___lldiv@quotient+1)
  7427  1172  3000               	movlw	0
  7428  1173  00A9               	movwf	(___lldiv@quotient)
  7429                           
  7430                           	line	10
  7431  1174  0823               	movf	(___lldiv@divisor+3),w
  7432  1175  0422               	iorwf	(___lldiv@divisor+2),w
  7433  1176  0421               	iorwf	(___lldiv@divisor+1),w
  7434  1177  0420               	iorwf	(___lldiv@divisor),w
  7435  1178  1903               	skipnz
  7436  1179  297B               	goto	u4471
  7437  117A  297C               	goto	u4470
  7438  117B                     u4471:
  7439  117B  29D0               	goto	l5904
  7440  117C                     u4470:
  7441                           	line	11
  7442                           	
  7443  117C                     l5886:	
  7444  117C  01AD               	clrf	(___lldiv@counter)
  7445  117D  1403               	bsf	status,0
  7446  117E  0DAD               	rlf	(___lldiv@counter),f
  7447                           	line	12
  7448  117F  298E               	goto	l5890
  7449                           	
  7450  1180                     l2406:	
  7451                           	line	13
  7452                           	
  7453  1180                     l5888:	
  7454  1180  3001               	movlw	01h
  7455  1181  00A8               	movwf	(??___lldiv+0)+0
  7456  1182                     u4485:
  7457  1182  1003               	clrc
  7458  1183  0DA0               	rlf	(___lldiv@divisor),f
  7459  1184  0DA1               	rlf	(___lldiv@divisor+1),f
  7460  1185  0DA2               	rlf	(___lldiv@divisor+2),f
  7461  1186  0DA3               	rlf	(___lldiv@divisor+3),f
  7462  1187  0BA8               	decfsz	(??___lldiv+0)+0
  7463  1188  2982               	goto	u4485
  7464                           	line	14
  7465  1189  3001               	movlw	(01h)
  7466  118A  00A8               	movwf	(??___lldiv+0)+0
  7467  118B  0828               	movf	(??___lldiv+0)+0,w
  7468  118C  07AD               	addwf	(___lldiv@counter),f
  7469  118D  298E               	goto	l5890
  7470                           	line	15
  7471                           	
  7472  118E                     l2405:	
  7473                           	line	12
  7474                           	
  7475  118E                     l5890:	
  7476  118E  1FA3               	btfss	(___lldiv@divisor+3),(31)&7
  7477  118F  2991               	goto	u4491
  7478  1190  2992               	goto	u4490
  7479  1191                     u4491:
  7480  1191  2980               	goto	l5888
  7481  1192                     u4490:
  7482  1192  2994               	goto	l5892
  7483                           	
  7484  1193                     l2407:	
  7485  1193  2994               	goto	l5892
  7486                           	line	16
  7487                           	
  7488  1194                     l2408:	
  7489                           	line	17
  7490                           	
  7491  1194                     l5892:	
  7492  1194  3001               	movlw	01h
  7493  1195  00A8               	movwf	(??___lldiv+0)+0
  7494  1196                     u4505:
  7495  1196  1003               	clrc
  7496  1197  0DA9               	rlf	(___lldiv@quotient),f
  7497  1198  0DAA               	rlf	(___lldiv@quotient+1),f
  7498  1199  0DAB               	rlf	(___lldiv@quotient+2),f
  7499  119A  0DAC               	rlf	(___lldiv@quotient+3),f
  7500  119B  0BA8               	decfsz	(??___lldiv+0)+0
  7501  119C  2996               	goto	u4505
  7502                           	line	18
  7503                           	
  7504  119D                     l5894:	
  7505  119D  0823               	movf	(___lldiv@divisor+3),w
  7506  119E  0227               	subwf	(___lldiv@dividend+3),w
  7507  119F  1D03               	skipz
  7508  11A0  29AB               	goto	u4515
  7509  11A1  0822               	movf	(___lldiv@divisor+2),w
  7510  11A2  0226               	subwf	(___lldiv@dividend+2),w
  7511  11A3  1D03               	skipz
  7512  11A4  29AB               	goto	u4515
  7513  11A5  0821               	movf	(___lldiv@divisor+1),w
  7514  11A6  0225               	subwf	(___lldiv@dividend+1),w
  7515  11A7  1D03               	skipz
  7516  11A8  29AB               	goto	u4515
  7517  11A9  0820               	movf	(___lldiv@divisor),w
  7518  11AA  0224               	subwf	(___lldiv@dividend),w
  7519  11AB                     u4515:
  7520  11AB  1C03               	skipc
  7521  11AC  29AE               	goto	u4511
  7522  11AD  29AF               	goto	u4510
  7523  11AE                     u4511:
  7524  11AE  29BF               	goto	l5900
  7525  11AF                     u4510:
  7526                           	line	19
  7527                           	
  7528  11AF                     l5896:	
  7529  11AF  0820               	movf	(___lldiv@divisor),w
  7530  11B0  02A4               	subwf	(___lldiv@dividend),f
  7531  11B1  0821               	movf	(___lldiv@divisor+1),w
  7532  11B2  1C03               	skipc
  7533  11B3  0F21               	incfsz	(___lldiv@divisor+1),w
  7534  11B4  02A5               	subwf	(___lldiv@dividend+1),f
  7535  11B5  0822               	movf	(___lldiv@divisor+2),w
  7536  11B6  1C03               	skipc
  7537  11B7  0F22               	incfsz	(___lldiv@divisor+2),w
  7538  11B8  02A6               	subwf	(___lldiv@dividend+2),f
  7539  11B9  0823               	movf	(___lldiv@divisor+3),w
  7540  11BA  1C03               	skipc
  7541  11BB  0F23               	incfsz	(___lldiv@divisor+3),w
  7542  11BC  02A7               	subwf	(___lldiv@dividend+3),f
  7543                           	line	20
  7544                           	
  7545  11BD                     l5898:	
  7546  11BD  1429               	bsf	(___lldiv@quotient)+(0/8),(0)&7
  7547  11BE  29BF               	goto	l5900
  7548                           	line	21
  7549                           	
  7550  11BF                     l2409:	
  7551                           	line	22
  7552                           	
  7553  11BF                     l5900:	
  7554  11BF  3001               	movlw	01h
  7555  11C0                     u4525:
  7556  11C0  1003               	clrc
  7557  11C1  0CA3               	rrf	(___lldiv@divisor+3),f
  7558  11C2  0CA2               	rrf	(___lldiv@divisor+2),f
  7559  11C3  0CA1               	rrf	(___lldiv@divisor+1),f
  7560  11C4  0CA0               	rrf	(___lldiv@divisor),f
  7561  11C5  3EFF               	addlw	-1
  7562  11C6  1D03               	skipz
  7563  11C7  29C0               	goto	u4525
  7564                           
  7565                           	line	23
  7566                           	
  7567  11C8                     l5902:	
  7568  11C8  3001               	movlw	low(01h)
  7569  11C9  02AD               	subwf	(___lldiv@counter),f
  7570  11CA  1D03               	btfss	status,2
  7571  11CB  29CD               	goto	u4531
  7572  11CC  29CE               	goto	u4530
  7573  11CD                     u4531:
  7574  11CD  2994               	goto	l5892
  7575  11CE                     u4530:
  7576  11CE  29D0               	goto	l5904
  7577                           	
  7578  11CF                     l2410:	
  7579  11CF  29D0               	goto	l5904
  7580                           	line	24
  7581                           	
  7582  11D0                     l2404:	
  7583                           	line	25
  7584                           	
  7585  11D0                     l5904:	
  7586  11D0  082C               	movf	(___lldiv@quotient+3),w
  7587  11D1  00A3               	movwf	(?___lldiv+3)
  7588  11D2  082B               	movf	(___lldiv@quotient+2),w
  7589  11D3  00A2               	movwf	(?___lldiv+2)
  7590  11D4  082A               	movf	(___lldiv@quotient+1),w
  7591  11D5  00A1               	movwf	(?___lldiv+1)
  7592  11D6  0829               	movf	(___lldiv@quotient),w
  7593  11D7  00A0               	movwf	(?___lldiv)
  7594                           
  7595  11D8  29D9               	goto	l2411
  7596                           	
  7597  11D9                     l5906:	
  7598                           	line	26
  7599                           	
  7600  11D9                     l2411:	
  7601  11D9  0008               	return
  7602                           	opt stack 0
  7603                           GLOBAL	__end_of___lldiv
  7604  11DA                     	__end_of___lldiv:
  7605 ;; =============== function ___lldiv ends ============
  7606                           
  7607                           	signat	___lldiv,8316
  7608                           	global	___ftge
  7609                           psect	text771,local,class=CODE,delta=2
  7610                           global __ptext771
  7611  10FC                     __ptext771:
  7612                           
  7613 ;; *************** function ___ftge *****************
  7614 ;; Defined at:
  7615 ;;		line 5 in file "C:\Program Files (x86)\HI-TECH Software\PICC\9.83\sources\ftge.c"
  7616 ;; Parameters:    Size  Location     Type
  7617 ;;  ff1             3    0[BANK0 ] float 
  7618 ;;  ff2             3    3[BANK0 ] float 
  7619 ;; Auto vars:     Size  Location     Type
  7620 ;;		None
  7621 ;; Return value:  Size  Location     Type
  7622 ;;		None               void
  7623 ;; Registers used:
  7624 ;;		wreg, status,2, status,0
  7625 ;; Tracked objects:
  7626 ;;		On entry : 0/0
  7627 ;;		On exit  : 0/0
  7628 ;;		Unchanged: 0/0
  7629 ;; Data sizes:     COMMON   BANK0   BANK1   BANK3   BANK2
  7630 ;;      Params:         0       6       0       0       0
  7631 ;;      Locals:         0       0       0       0       0
  7632 ;;      Temps:          0       6       0       0       0
  7633 ;;      Totals:         0      12       0       0       0
  7634 ;;Total ram usage:       12 bytes
  7635 ;; Hardware stack levels used:    1
  7636 ;; Hardware stack levels required when called:    1
  7637 ;; This function calls:
  7638 ;;		Nothing
  7639 ;; This function is called by:
  7640 ;;		_main
  7641 ;;		_printf
  7642 ;; This function uses a non-reentrant model
  7643 ;;
  7644                           psect	text771
  7645                           	file	"C:\Program Files (x86)\HI-TECH Software\PICC\9.83\sources\ftge.c"
  7646                           	line	5
  7647                           	global	__size_of___ftge
  7648  006E                     	__size_of___ftge	equ	__end_of___ftge-___ftge
  7649                           	
  7650  10FC                     ___ftge:	
  7651                           	opt	stack 5
  7652                           ; Regs used in ___ftge: [wreg+status,2+status,0]
  7653                           	line	6
  7654                           	
  7655  10FC                     l5864:	
  7656  10FC  1283               	bcf	status, 5	;RP0=0, select bank0
  7657  10FD  1303               	bcf	status, 6	;RP1=0, select bank0
  7658  10FE  1FA2               	btfss	(___ftge@ff1+2),(23)&7
  7659  10FF  2901               	goto	u4421
  7660  1100  2902               	goto	u4420
  7661  1101                     u4421:
  7662  1101  2928               	goto	l5868
  7663  1102                     u4420:
  7664                           	line	7
  7665                           	
  7666  1102                     l5866:	
  7667  1102  3000               	movlw	0
  7668  1103  00A6               	movwf	((??___ftge+0)+0)
  7669  1104  3000               	movlw	0
  7670  1105  00A7               	movwf	((??___ftge+0)+0+1)
  7671  1106  3080               	movlw	080h
  7672  1107  00A8               	movwf	((??___ftge+0)+0+2)
  7673  1108  0920               	comf	(___ftge@ff1),w
  7674  1109  00A9               	movwf	(??___ftge+3)+0
  7675  110A  0921               	comf	(___ftge@ff1+1),w
  7676  110B  00AA               	movwf	((??___ftge+3)+0+1)
  7677  110C  0922               	comf	(___ftge@ff1+2),w
  7678  110D  00AB               	movwf	((??___ftge+3)+0+2)
  7679  110E  0AA9               	incf	(??___ftge+3)+0,f
  7680  110F  1903               	skipnz
  7681  1110  0AAA               	incf	((??___ftge+3)+0+1),f
  7682  1111  1903               	skipnz
  7683  1112  0AAB               	incf	((??___ftge+3)+0+2),f
  7684  1113  0829               	movf	0+(??___ftge+3)+0,w
  7685  1114  07A6               	addwf	(??___ftge+0)+0,f
  7686  1115  082A               	movf	1+(??___ftge+3)+0,w
  7687  1116  1803               	skipnc
  7688  1117  0F2A               	incfsz	1+(??___ftge+3)+0,w
  7689  1118  291A               	goto	u4431
  7690  1119  291B               	goto	u4432
  7691  111A                     u4431:
  7692  111A  07A7               	addwf	(??___ftge+0)+1,f
  7693                           	
  7694  111B                     u4432:
  7695  111B  082B               	movf	2+(??___ftge+3)+0,w
  7696  111C  1803               	skipnc
  7697  111D  0F2B               	incfsz	2+(??___ftge+3)+0,w
  7698  111E  2920               	goto	u4433
  7699  111F  2921               	goto	u4434
  7700  1120                     u4433:
  7701  1120  07A8               	addwf	(??___ftge+0)+2,f
  7702                           	
  7703  1121                     u4434:
  7704  1121  0826               	movf	0+(??___ftge+0)+0,w
  7705  1122  00A0               	movwf	(___ftge@ff1)
  7706  1123  0827               	movf	1+(??___ftge+0)+0,w
  7707  1124  00A1               	movwf	(___ftge@ff1+1)
  7708  1125  0828               	movf	2+(??___ftge+0)+0,w
  7709  1126  00A2               	movwf	(___ftge@ff1+2)
  7710  1127  2928               	goto	l5868
  7711                           	
  7712  1128                     l2399:	
  7713                           	line	8
  7714                           	
  7715  1128                     l5868:	
  7716  1128  1FA5               	btfss	(___ftge@ff2+2),(23)&7
  7717  1129  292B               	goto	u4441
  7718  112A  292C               	goto	u4440
  7719  112B                     u4441:
  7720  112B  2952               	goto	l5872
  7721  112C                     u4440:
  7722                           	line	9
  7723                           	
  7724  112C                     l5870:	
  7725  112C  3000               	movlw	0
  7726  112D  00A6               	movwf	((??___ftge+0)+0)
  7727  112E  3000               	movlw	0
  7728  112F  00A7               	movwf	((??___ftge+0)+0+1)
  7729  1130  3080               	movlw	080h
  7730  1131  00A8               	movwf	((??___ftge+0)+0+2)
  7731  1132  0923               	comf	(___ftge@ff2),w
  7732  1133  00A9               	movwf	(??___ftge+3)+0
  7733  1134  0924               	comf	(___ftge@ff2+1),w
  7734  1135  00AA               	movwf	((??___ftge+3)+0+1)
  7735  1136  0925               	comf	(___ftge@ff2+2),w
  7736  1137  00AB               	movwf	((??___ftge+3)+0+2)
  7737  1138  0AA9               	incf	(??___ftge+3)+0,f
  7738  1139  1903               	skipnz
  7739  113A  0AAA               	incf	((??___ftge+3)+0+1),f
  7740  113B  1903               	skipnz
  7741  113C  0AAB               	incf	((??___ftge+3)+0+2),f
  7742  113D  0829               	movf	0+(??___ftge+3)+0,w
  7743  113E  07A6               	addwf	(??___ftge+0)+0,f
  7744  113F  082A               	movf	1+(??___ftge+3)+0,w
  7745  1140  1803               	skipnc
  7746  1141  0F2A               	incfsz	1+(??___ftge+3)+0,w
  7747  1142  2944               	goto	u4451
  7748  1143  2945               	goto	u4452
  7749  1144                     u4451:
  7750  1144  07A7               	addwf	(??___ftge+0)+1,f
  7751                           	
  7752  1145                     u4452:
  7753  1145  082B               	movf	2+(??___ftge+3)+0,w
  7754  1146  1803               	skipnc
  7755  1147  0F2B               	incfsz	2+(??___ftge+3)+0,w
  7756  1148  294A               	goto	u4453
  7757  1149  294B               	goto	u4454
  7758  114A                     u4453:
  7759  114A  07A8               	addwf	(??___ftge+0)+2,f
  7760                           	
  7761  114B                     u4454:
  7762  114B  0826               	movf	0+(??___ftge+0)+0,w
  7763  114C  00A3               	movwf	(___ftge@ff2)
  7764  114D  0827               	movf	1+(??___ftge+0)+0,w
  7765  114E  00A4               	movwf	(___ftge@ff2+1)
  7766  114F  0828               	movf	2+(??___ftge+0)+0,w
  7767  1150  00A5               	movwf	(___ftge@ff2+2)
  7768  1151  2952               	goto	l5872
  7769                           	
  7770  1152                     l2400:	
  7771                           	line	10
  7772                           	
  7773  1152                     l5872:	
  7774  1152  3080               	movlw	080h
  7775  1153  06A2               	xorwf	(___ftge@ff1+2),f
  7776                           	line	11
  7777                           	
  7778  1154                     l5874:	
  7779  1154  3080               	movlw	080h
  7780  1155  06A5               	xorwf	(___ftge@ff2+2),f
  7781                           	line	12
  7782                           	
  7783  1156                     l5876:	
  7784  1156  0825               	movf	(___ftge@ff2+2),w
  7785  1157  0222               	subwf	(___ftge@ff1+2),w
  7786  1158  1D03               	skipz
  7787  1159  2960               	goto	u4465
  7788  115A  0824               	movf	(___ftge@ff2+1),w
  7789  115B  0221               	subwf	(___ftge@ff1+1),w
  7790  115C  1D03               	skipz
  7791  115D  2960               	goto	u4465
  7792  115E  0823               	movf	(___ftge@ff2),w
  7793  115F  0220               	subwf	(___ftge@ff1),w
  7794  1160                     u4465:
  7795  1160  1803               	skipnc
  7796  1161  2963               	goto	u4461
  7797  1162  2964               	goto	u4460
  7798  1163                     u4461:
  7799  1163  2966               	goto	l5880
  7800  1164                     u4460:
  7801                           	
  7802  1164                     l5878:	
  7803  1164  1003               	clrc
  7804                           	
  7805  1165  2969               	goto	l2401
  7806                           	
  7807  1166                     l5476:	
  7808                           	
  7809  1166                     l5880:	
  7810  1166  1403               	setc
  7811                           	
  7812  1167  2969               	goto	l2401
  7813                           	
  7814  1168                     l5478:	
  7815  1168  2969               	goto	l2401
  7816                           	
  7817  1169                     l5882:	
  7818                           	line	13
  7819                           	
  7820  1169                     l2401:	
  7821  1169  0008               	return
  7822                           	opt stack 0
  7823                           GLOBAL	__end_of___ftge
  7824  116A                     	__end_of___ftge:
  7825 ;; =============== function ___ftge ends ============
  7826                           
  7827                           	signat	___ftge,8312
  7828                           	global	___ftneg
  7829                           psect	text772,local,class=CODE,delta=2
  7830                           global __ptext772
  7831  0805                     __ptext772:
  7832                           
  7833 ;; *************** function ___ftneg *****************
  7834 ;; Defined at:
  7835 ;;		line 16 in file "C:\Program Files (x86)\HI-TECH Software\PICC\9.83\sources\ftneg.c"
  7836 ;; Parameters:    Size  Location     Type
  7837 ;;  f1              3    0[BANK0 ] float 
  7838 ;; Auto vars:     Size  Location     Type
  7839 ;;		None
  7840 ;; Return value:  Size  Location     Type
  7841 ;;                  3    0[BANK0 ] float 
  7842 ;; Registers used:
  7843 ;;		wreg
  7844 ;; Tracked objects:
  7845 ;;		On entry : 0/0
  7846 ;;		On exit  : 0/0
  7847 ;;		Unchanged: 0/0
  7848 ;; Data sizes:     COMMON   BANK0   BANK1   BANK3   BANK2
  7849 ;;      Params:         0       3       0       0       0
  7850 ;;      Locals:         0       0       0       0       0
  7851 ;;      Temps:          0       0       0       0       0
  7852 ;;      Totals:         0       3       0       0       0
  7853 ;;Total ram usage:        3 bytes
  7854 ;; Hardware stack levels used:    1
  7855 ;; Hardware stack levels required when called:    1
  7856 ;; This function calls:
  7857 ;;		Nothing
  7858 ;; This function is called by:
  7859 ;;		_printf
  7860 ;; This function uses a non-reentrant model
  7861 ;;
  7862                           psect	text772
  7863                           	file	"C:\Program Files (x86)\HI-TECH Software\PICC\9.83\sources\ftneg.c"
  7864                           	line	16
  7865                           	global	__size_of___ftneg
  7866  000E                     	__size_of___ftneg	equ	__end_of___ftneg-___ftneg
  7867                           	
  7868  0805                     ___ftneg:	
  7869                           	opt	stack 5
  7870                           ; Regs used in ___ftneg: [wreg]
  7871                           	line	17
  7872                           	
  7873  0805                     l6686:	
  7874  0805  1283               	bcf	status, 5	;RP0=0, select bank0
  7875  0806  1303               	bcf	status, 6	;RP1=0, select bank0
  7876  0807  0822               	movf	(___ftneg@f1+2),w
  7877  0808  0421               	iorwf	(___ftneg@f1+1),w
  7878  0809  0420               	iorwf	(___ftneg@f1),w
  7879  080A  1903               	skipnz
  7880  080B  280D               	goto	u5681
  7881  080C  280E               	goto	u5680
  7882  080D                     u5681:
  7883  080D  2811               	goto	l6690
  7884  080E                     u5680:
  7885                           	line	18
  7886                           	
  7887  080E                     l6688:	
  7888  080E  3080               	movlw	080h
  7889  080F  06A2               	xorwf	(___ftneg@f1+2),f
  7890  0810  2811               	goto	l6690
  7891                           	
  7892  0811                     l2395:	
  7893                           	line	19
  7894                           	
  7895  0811                     l6690:	
  7896  0811  2812               	goto	l2396
  7897                           	
  7898  0812                     l6692:	
  7899                           	line	20
  7900                           	
  7901  0812                     l2396:	
  7902  0812  0008               	return
  7903                           	opt stack 0
  7904                           GLOBAL	__end_of___ftneg
  7905  0813                     	__end_of___ftneg:
  7906 ;; =============== function ___ftneg ends ============
  7907                           
  7908                           	signat	___ftneg,4219
  7909                           	global	___llmod
  7910                           psect	text773,local,class=CODE,delta=2
  7911                           global __ptext773
  7912  1F3A                     __ptext773:
  7913                           
  7914 ;; *************** function ___llmod *****************
  7915 ;; Defined at:
  7916 ;;		line 5 in file "C:\Program Files (x86)\HI-TECH Software\PICC\9.83\sources\llmod.c"
  7917 ;; Parameters:    Size  Location     Type
  7918 ;;  divisor         4   14[BANK0 ] unsigned long 
  7919 ;;  dividend        4   18[BANK0 ] unsigned long 
  7920 ;; Auto vars:     Size  Location     Type
  7921 ;;  counter         1   23[BANK0 ] unsigned char 
  7922 ;; Return value:  Size  Location     Type
  7923 ;;                  4   14[BANK0 ] unsigned long 
  7924 ;; Registers used:
  7925 ;;		wreg, status,2, status,0
  7926 ;; Tracked objects:
  7927 ;;		On entry : 0/0
  7928 ;;		On exit  : 0/0
  7929 ;;		Unchanged: 0/0
  7930 ;; Data sizes:     COMMON   BANK0   BANK1   BANK3   BANK2
  7931 ;;      Params:         0       8       0       0       0
  7932 ;;      Locals:         0       1       0       0       0
  7933 ;;      Temps:          0       1       0       0       0
  7934 ;;      Totals:         0      10       0       0       0
  7935 ;;Total ram usage:       10 bytes
  7936 ;; Hardware stack levels used:    1
  7937 ;; Hardware stack levels required when called:    1
  7938 ;; This function calls:
  7939 ;;		Nothing
  7940 ;; This function is called by:
  7941 ;;		_printf
  7942 ;; This function uses a non-reentrant model
  7943 ;;
  7944                           psect	text773
  7945                           	file	"C:\Program Files (x86)\HI-TECH Software\PICC\9.83\sources\llmod.c"
  7946                           	line	5
  7947                           	global	__size_of___llmod
  7948  005E                     	__size_of___llmod	equ	__end_of___llmod-___llmod
  7949                           	
  7950  1F3A                     ___llmod:	
  7951                           	opt	stack 5
  7952                           ; Regs used in ___llmod: [wreg+status,2+status,0]
  7953                           	line	8
  7954                           	
  7955  1F3A                     l5836:	
  7956  1F3A  1283               	bcf	status, 5	;RP0=0, select bank0
  7957  1F3B  1303               	bcf	status, 6	;RP1=0, select bank0
  7958  1F3C  0831               	movf	(___llmod@divisor+3),w
  7959  1F3D  0430               	iorwf	(___llmod@divisor+2),w
  7960  1F3E  042F               	iorwf	(___llmod@divisor+1),w
  7961  1F3F  042E               	iorwf	(___llmod@divisor),w
  7962  1F40  1903               	skipnz
  7963  1F41  2F43               	goto	u4351
  7964  1F42  2F44               	goto	u4350
  7965  1F43                     u4351:
  7966  1F43  2F8E               	goto	l5852
  7967  1F44                     u4350:
  7968                           	line	9
  7969                           	
  7970  1F44                     l5838:	
  7971  1F44  01B7               	clrf	(___llmod@counter)
  7972  1F45  1403               	bsf	status,0
  7973  1F46  0DB7               	rlf	(___llmod@counter),f
  7974                           	line	10
  7975  1F47  2F56               	goto	l5842
  7976                           	
  7977  1F48                     l2387:	
  7978                           	line	11
  7979                           	
  7980  1F48                     l5840:	
  7981  1F48  3001               	movlw	01h
  7982  1F49  00B6               	movwf	(??___llmod+0)+0
  7983  1F4A                     u4365:
  7984  1F4A  1003               	clrc
  7985  1F4B  0DAE               	rlf	(___llmod@divisor),f
  7986  1F4C  0DAF               	rlf	(___llmod@divisor+1),f
  7987  1F4D  0DB0               	rlf	(___llmod@divisor+2),f
  7988  1F4E  0DB1               	rlf	(___llmod@divisor+3),f
  7989  1F4F  0BB6               	decfsz	(??___llmod+0)+0
  7990  1F50  2F4A               	goto	u4365
  7991                           	line	12
  7992  1F51  3001               	movlw	(01h)
  7993  1F52  00B6               	movwf	(??___llmod+0)+0
  7994  1F53  0836               	movf	(??___llmod+0)+0,w
  7995  1F54  07B7               	addwf	(___llmod@counter),f
  7996  1F55  2F56               	goto	l5842
  7997                           	line	13
  7998                           	
  7999  1F56                     l2386:	
  8000                           	line	10
  8001                           	
  8002  1F56                     l5842:	
  8003  1F56  1FB1               	btfss	(___llmod@divisor+3),(31)&7
  8004  1F57  2F59               	goto	u4371
  8005  1F58  2F5A               	goto	u4370
  8006  1F59                     u4371:
  8007  1F59  2F48               	goto	l5840
  8008  1F5A                     u4370:
  8009  1F5A  2F5C               	goto	l5844
  8010                           	
  8011  1F5B                     l2388:	
  8012  1F5B  2F5C               	goto	l5844
  8013                           	line	14
  8014                           	
  8015  1F5C                     l2389:	
  8016                           	line	15
  8017                           	
  8018  1F5C                     l5844:	
  8019  1F5C  0831               	movf	(___llmod@divisor+3),w
  8020  1F5D  0235               	subwf	(___llmod@dividend+3),w
  8021  1F5E  1D03               	skipz
  8022  1F5F  2F6A               	goto	u4385
  8023  1F60  0830               	movf	(___llmod@divisor+2),w
  8024  1F61  0234               	subwf	(___llmod@dividend+2),w
  8025  1F62  1D03               	skipz
  8026  1F63  2F6A               	goto	u4385
  8027  1F64  082F               	movf	(___llmod@divisor+1),w
  8028  1F65  0233               	subwf	(___llmod@dividend+1),w
  8029  1F66  1D03               	skipz
  8030  1F67  2F6A               	goto	u4385
  8031  1F68  082E               	movf	(___llmod@divisor),w
  8032  1F69  0232               	subwf	(___llmod@dividend),w
  8033  1F6A                     u4385:
  8034  1F6A  1C03               	skipc
  8035  1F6B  2F6D               	goto	u4381
  8036  1F6C  2F6E               	goto	u4380
  8037  1F6D                     u4381:
  8038  1F6D  2F7D               	goto	l5848
  8039  1F6E                     u4380:
  8040                           	line	16
  8041                           	
  8042  1F6E                     l5846:	
  8043  1F6E  082E               	movf	(___llmod@divisor),w
  8044  1F6F  02B2               	subwf	(___llmod@dividend),f
  8045  1F70  082F               	movf	(___llmod@divisor+1),w
  8046  1F71  1C03               	skipc
  8047  1F72  0F2F               	incfsz	(___llmod@divisor+1),w
  8048  1F73  02B3               	subwf	(___llmod@dividend+1),f
  8049  1F74  0830               	movf	(___llmod@divisor+2),w
  8050  1F75  1C03               	skipc
  8051  1F76  0F30               	incfsz	(___llmod@divisor+2),w
  8052  1F77  02B4               	subwf	(___llmod@dividend+2),f
  8053  1F78  0831               	movf	(___llmod@divisor+3),w
  8054  1F79  1C03               	skipc
  8055  1F7A  0F31               	incfsz	(___llmod@divisor+3),w
  8056  1F7B  02B5               	subwf	(___llmod@dividend+3),f
  8057  1F7C  2F7D               	goto	l5848
  8058                           	
  8059  1F7D                     l2390:	
  8060                           	line	17
  8061                           	
  8062  1F7D                     l5848:	
  8063  1F7D  3001               	movlw	01h
  8064  1F7E                     u4395:
  8065  1F7E  1003               	clrc
  8066  1F7F  0CB1               	rrf	(___llmod@divisor+3),f
  8067  1F80  0CB0               	rrf	(___llmod@divisor+2),f
  8068  1F81  0CAF               	rrf	(___llmod@divisor+1),f
  8069  1F82  0CAE               	rrf	(___llmod@divisor),f
  8070  1F83  3EFF               	addlw	-1
  8071  1F84  1D03               	skipz
  8072  1F85  2F7E               	goto	u4395
  8073                           
  8074                           	line	18
  8075                           	
  8076  1F86                     l5850:	
  8077  1F86  3001               	movlw	low(01h)
  8078  1F87  02B7               	subwf	(___llmod@counter),f
  8079  1F88  1D03               	btfss	status,2
  8080  1F89  2F8B               	goto	u4401
  8081  1F8A  2F8C               	goto	u4400
  8082  1F8B                     u4401:
  8083  1F8B  2F5C               	goto	l5844
  8084  1F8C                     u4400:
  8085  1F8C  2F8E               	goto	l5852
  8086                           	
  8087  1F8D                     l2391:	
  8088  1F8D  2F8E               	goto	l5852
  8089                           	line	19
  8090                           	
  8091  1F8E                     l2385:	
  8092                           	line	20
  8093                           	
  8094  1F8E                     l5852:	
  8095  1F8E  0835               	movf	(___llmod@dividend+3),w
  8096  1F8F  00B1               	movwf	(?___llmod+3)
  8097  1F90  0834               	movf	(___llmod@dividend+2),w
  8098  1F91  00B0               	movwf	(?___llmod+2)
  8099  1F92  0833               	movf	(___llmod@dividend+1),w
  8100  1F93  00AF               	movwf	(?___llmod+1)
  8101  1F94  0832               	movf	(___llmod@dividend),w
  8102  1F95  00AE               	movwf	(?___llmod)
  8103                           
  8104  1F96  2F97               	goto	l2392
  8105                           	
  8106  1F97                     l5854:	
  8107                           	line	21
  8108                           	
  8109  1F97                     l2392:	
  8110  1F97  0008               	return
  8111                           	opt stack 0
  8112                           GLOBAL	__end_of___llmod
  8113  1F98                     	__end_of___llmod:
  8114 ;; =============== function ___llmod ends ============
  8115                           
  8116                           	signat	___llmod,8316
  8117                           	global	___awdiv
  8118                           psect	text774,local,class=CODE,delta=2
  8119                           global __ptext774
  8120  11DA                     __ptext774:
  8121                           
  8122 ;; *************** function ___awdiv *****************
  8123 ;; Defined at:
  8124 ;;		line 5 in file "C:\Program Files (x86)\HI-TECH Software\PICC\9.83\sources\awdiv.c"
  8125 ;; Parameters:    Size  Location     Type
  8126 ;;  divisor         2    7[BANK0 ] int 
  8127 ;;  dividend        2    9[BANK0 ] int 
  8128 ;; Auto vars:     Size  Location     Type
  8129 ;;  quotient        2   14[BANK0 ] int 
  8130 ;;  sign            1   13[BANK0 ] unsigned char 
  8131 ;;  counter         1   12[BANK0 ] unsigned char 
  8132 ;; Return value:  Size  Location     Type
  8133 ;;                  2    7[BANK0 ] int 
  8134 ;; Registers used:
  8135 ;;		wreg, status,2, status,0
  8136 ;; Tracked objects:
  8137 ;;		On entry : 0/0
  8138 ;;		On exit  : 0/0
  8139 ;;		Unchanged: 0/0
  8140 ;; Data sizes:     COMMON   BANK0   BANK1   BANK3   BANK2
  8141 ;;      Params:         0       4       0       0       0
  8142 ;;      Locals:         0       4       0       0       0
  8143 ;;      Temps:          0       1       0       0       0
  8144 ;;      Totals:         0       9       0       0       0
  8145 ;;Total ram usage:        9 bytes
  8146 ;; Hardware stack levels used:    1
  8147 ;; Hardware stack levels required when called:    1
  8148 ;; This function calls:
  8149 ;;		Nothing
  8150 ;; This function is called by:
  8151 ;;		_fround
  8152 ;;		_scale
  8153 ;;		_printf
  8154 ;; This function uses a non-reentrant model
  8155 ;;
  8156                           psect	text774
  8157                           	file	"C:\Program Files (x86)\HI-TECH Software\PICC\9.83\sources\awdiv.c"
  8158                           	line	5
  8159                           	global	__size_of___awdiv
  8160  0076                     	__size_of___awdiv	equ	__end_of___awdiv-___awdiv
  8161                           	
  8162  11DA                     ___awdiv:	
  8163                           	opt	stack 4
  8164                           ; Regs used in ___awdiv: [wreg+status,2+status,0]
  8165                           	line	9
  8166                           	
  8167  11DA                     l5796:	
  8168  11DA  1283               	bcf	status, 5	;RP0=0, select bank0
  8169  11DB  1303               	bcf	status, 6	;RP1=0, select bank0
  8170  11DC  01AD               	clrf	(___awdiv@sign)
  8171                           	line	10
  8172  11DD  1FA8               	btfss	(___awdiv@divisor+1),7
  8173  11DE  29E0               	goto	u4251
  8174  11DF  29E1               	goto	u4250
  8175  11E0                     u4251:
  8176  11E0  29EA               	goto	l5800
  8177  11E1                     u4250:
  8178                           	line	11
  8179                           	
  8180  11E1                     l5798:	
  8181  11E1  09A7               	comf	(___awdiv@divisor),f
  8182  11E2  09A8               	comf	(___awdiv@divisor+1),f
  8183  11E3  0AA7               	incf	(___awdiv@divisor),f
  8184  11E4  1903               	skipnz
  8185  11E5  0AA8               	incf	(___awdiv@divisor+1),f
  8186                           	line	12
  8187  11E6  01AD               	clrf	(___awdiv@sign)
  8188  11E7  1403               	bsf	status,0
  8189  11E8  0DAD               	rlf	(___awdiv@sign),f
  8190  11E9  29EA               	goto	l5800
  8191                           	line	13
  8192                           	
  8193  11EA                     l2372:	
  8194                           	line	14
  8195                           	
  8196  11EA                     l5800:	
  8197  11EA  1FAA               	btfss	(___awdiv@dividend+1),7
  8198  11EB  29ED               	goto	u4261
  8199  11EC  29EE               	goto	u4260
  8200  11ED                     u4261:
  8201  11ED  29F8               	goto	l5806
  8202  11EE                     u4260:
  8203                           	line	15
  8204                           	
  8205  11EE                     l5802:	
  8206  11EE  09A9               	comf	(___awdiv@dividend),f
  8207  11EF  09AA               	comf	(___awdiv@dividend+1),f
  8208  11F0  0AA9               	incf	(___awdiv@dividend),f
  8209  11F1  1903               	skipnz
  8210  11F2  0AAA               	incf	(___awdiv@dividend+1),f
  8211                           	line	16
  8212                           	
  8213  11F3                     l5804:	
  8214  11F3  3001               	movlw	(01h)
  8215  11F4  00AB               	movwf	(??___awdiv+0)+0
  8216  11F5  082B               	movf	(??___awdiv+0)+0,w
  8217  11F6  06AD               	xorwf	(___awdiv@sign),f
  8218  11F7  29F8               	goto	l5806
  8219                           	line	17
  8220                           	
  8221  11F8                     l2373:	
  8222                           	line	18
  8223                           	
  8224  11F8                     l5806:	
  8225  11F8  01AE               	clrf	(___awdiv@quotient)
  8226  11F9  01AF               	clrf	(___awdiv@quotient+1)
  8227                           	line	19
  8228                           	
  8229  11FA                     l5808:	
  8230  11FA  0828               	movf	(___awdiv@divisor+1),w
  8231  11FB  0427               	iorwf	(___awdiv@divisor),w
  8232  11FC  1903               	skipnz
  8233  11FD  29FF               	goto	u4271
  8234  11FE  2A00               	goto	u4270
  8235  11FF                     u4271:
  8236  11FF  2A3E               	goto	l5828
  8237  1200                     u4270:
  8238                           	line	20
  8239                           	
  8240  1200                     l5810:	
  8241  1200  01AC               	clrf	(___awdiv@counter)
  8242  1201  1403               	bsf	status,0
  8243  1202  0DAC               	rlf	(___awdiv@counter),f
  8244                           	line	21
  8245  1203  2A10               	goto	l5816
  8246                           	
  8247  1204                     l2376:	
  8248                           	line	22
  8249                           	
  8250  1204                     l5812:	
  8251  1204  3001               	movlw	01h
  8252                           	
  8253  1205                     u4285:
  8254  1205  1003               	clrc
  8255  1206  0DA7               	rlf	(___awdiv@divisor),f
  8256  1207  0DA8               	rlf	(___awdiv@divisor+1),f
  8257  1208  3EFF               	addlw	-1
  8258  1209  1D03               	skipz
  8259  120A  2A05               	goto	u4285
  8260                           	line	23
  8261                           	
  8262  120B                     l5814:	
  8263  120B  3001               	movlw	(01h)
  8264  120C  00AB               	movwf	(??___awdiv+0)+0
  8265  120D  082B               	movf	(??___awdiv+0)+0,w
  8266  120E  07AC               	addwf	(___awdiv@counter),f
  8267  120F  2A10               	goto	l5816
  8268                           	line	24
  8269                           	
  8270  1210                     l2375:	
  8271                           	line	21
  8272                           	
  8273  1210                     l5816:	
  8274  1210  1FA8               	btfss	(___awdiv@divisor+1),(15)&7
  8275  1211  2A13               	goto	u4291
  8276  1212  2A14               	goto	u4290
  8277  1213                     u4291:
  8278  1213  2A04               	goto	l5812
  8279  1214                     u4290:
  8280  1214  2A16               	goto	l5818
  8281                           	
  8282  1215                     l2377:	
  8283  1215  2A16               	goto	l5818
  8284                           	line	25
  8285                           	
  8286  1216                     l2378:	
  8287                           	line	26
  8288                           	
  8289  1216                     l5818:	
  8290  1216  3001               	movlw	01h
  8291                           	
  8292  1217                     u4305:
  8293  1217  1003               	clrc
  8294  1218  0DAE               	rlf	(___awdiv@quotient),f
  8295  1219  0DAF               	rlf	(___awdiv@quotient+1),f
  8296  121A  3EFF               	addlw	-1
  8297  121B  1D03               	skipz
  8298  121C  2A17               	goto	u4305
  8299                           	line	27
  8300  121D  0828               	movf	(___awdiv@divisor+1),w
  8301  121E  022A               	subwf	(___awdiv@dividend+1),w
  8302  121F  1D03               	skipz
  8303  1220  2A23               	goto	u4315
  8304  1221  0827               	movf	(___awdiv@divisor),w
  8305  1222  0229               	subwf	(___awdiv@dividend),w
  8306  1223                     u4315:
  8307  1223  1C03               	skipc
  8308  1224  2A26               	goto	u4311
  8309  1225  2A27               	goto	u4310
  8310  1226                     u4311:
  8311  1226  2A2F               	goto	l5824
  8312  1227                     u4310:
  8313                           	line	28
  8314                           	
  8315  1227                     l5820:	
  8316  1227  0827               	movf	(___awdiv@divisor),w
  8317  1228  02A9               	subwf	(___awdiv@dividend),f
  8318  1229  0828               	movf	(___awdiv@divisor+1),w
  8319  122A  1C03               	skipc
  8320  122B  03AA               	decf	(___awdiv@dividend+1),f
  8321  122C  02AA               	subwf	(___awdiv@dividend+1),f
  8322                           	line	29
  8323                           	
  8324  122D                     l5822:	
  8325  122D  142E               	bsf	(___awdiv@quotient)+(0/8),(0)&7
  8326  122E  2A2F               	goto	l5824
  8327                           	line	30
  8328                           	
  8329  122F                     l2379:	
  8330                           	line	31
  8331                           	
  8332  122F                     l5824:	
  8333  122F  3001               	movlw	01h
  8334                           	
  8335  1230                     u4325:
  8336  1230  1003               	clrc
  8337  1231  0CA8               	rrf	(___awdiv@divisor+1),f
  8338  1232  0CA7               	rrf	(___awdiv@divisor),f
  8339  1233  3EFF               	addlw	-1
  8340  1234  1D03               	skipz
  8341  1235  2A30               	goto	u4325
  8342                           	line	32
  8343                           	
  8344  1236                     l5826:	
  8345  1236  3001               	movlw	low(01h)
  8346  1237  02AC               	subwf	(___awdiv@counter),f
  8347  1238  1D03               	btfss	status,2
  8348  1239  2A3B               	goto	u4331
  8349  123A  2A3C               	goto	u4330
  8350  123B                     u4331:
  8351  123B  2A16               	goto	l5818
  8352  123C                     u4330:
  8353  123C  2A3E               	goto	l5828
  8354                           	
  8355  123D                     l2380:	
  8356  123D  2A3E               	goto	l5828
  8357                           	line	33
  8358                           	
  8359  123E                     l2374:	
  8360                           	line	34
  8361                           	
  8362  123E                     l5828:	
  8363  123E  082D               	movf	(___awdiv@sign),w
  8364  123F  1D03               	skipz
  8365  1240  2A42               	goto	u4340
  8366  1241  2A48               	goto	l5832
  8367  1242                     u4340:
  8368                           	line	35
  8369                           	
  8370  1242                     l5830:	
  8371  1242  09AE               	comf	(___awdiv@quotient),f
  8372  1243  09AF               	comf	(___awdiv@quotient+1),f
  8373  1244  0AAE               	incf	(___awdiv@quotient),f
  8374  1245  1903               	skipnz
  8375  1246  0AAF               	incf	(___awdiv@quotient+1),f
  8376  1247  2A48               	goto	l5832
  8377                           	
  8378  1248                     l2381:	
  8379                           	line	36
  8380                           	
  8381  1248                     l5832:	
  8382  1248  082F               	movf	(___awdiv@quotient+1),w
  8383  1249  01A8               	clrf	(?___awdiv+1)
  8384  124A  07A8               	addwf	(?___awdiv+1)
  8385  124B  082E               	movf	(___awdiv@quotient),w
  8386  124C  01A7               	clrf	(?___awdiv)
  8387  124D  07A7               	addwf	(?___awdiv)
  8388                           
  8389  124E  2A4F               	goto	l2382
  8390                           	
  8391  124F                     l5834:	
  8392                           	line	37
  8393                           	
  8394  124F                     l2382:	
  8395  124F  0008               	return
  8396                           	opt stack 0
  8397                           GLOBAL	__end_of___awdiv
  8398  1250                     	__end_of___awdiv:
  8399 ;; =============== function ___awdiv ends ============
  8400                           
  8401                           	signat	___awdiv,8314
  8402                           	global	___fttol
  8403                           psect	text775,local,class=CODE,delta=2
  8404                           global __ptext775
  8405  0813                     __ptext775:
  8406                           
  8407 ;; *************** function ___fttol *****************
  8408 ;; Defined at:
  8409 ;;		line 45 in file "C:\Program Files (x86)\HI-TECH Software\PICC\9.83\sources\fttol.c"
  8410 ;; Parameters:    Size  Location     Type
  8411 ;;  f1              3   20[BANK0 ] float 
  8412 ;; Auto vars:     Size  Location     Type
  8413 ;;  lval            4   29[BANK0 ] unsigned long 
  8414 ;;  exp1            1   33[BANK0 ] unsigned char 
  8415 ;;  sign1           1   28[BANK0 ] unsigned char 
  8416 ;; Return value:  Size  Location     Type
  8417 ;;                  4   20[BANK0 ] long 
  8418 ;; Registers used:
  8419 ;;		wreg, status,2, status,0
  8420 ;; Tracked objects:
  8421 ;;		On entry : 0/0
  8422 ;;		On exit  : 0/0
  8423 ;;		Unchanged: 0/0
  8424 ;; Data sizes:     COMMON   BANK0   BANK1   BANK3   BANK2
  8425 ;;      Params:         0       4       0       0       0
  8426 ;;      Locals:         0       6       0       0       0
  8427 ;;      Temps:          0       4       0       0       0
  8428 ;;      Totals:         0      14       0       0       0
  8429 ;;Total ram usage:       14 bytes
  8430 ;; Hardware stack levels used:    1
  8431 ;; Hardware stack levels required when called:    1
  8432 ;; This function calls:
  8433 ;;		Nothing
  8434 ;; This function is called by:
  8435 ;;		_printf
  8436 ;; This function uses a non-reentrant model
  8437 ;;
  8438                           psect	text775
  8439                           	file	"C:\Program Files (x86)\HI-TECH Software\PICC\9.83\sources\fttol.c"
  8440                           	line	45
  8441                           	global	__size_of___fttol
  8442  00A6                     	__size_of___fttol	equ	__end_of___fttol-___fttol
  8443                           	
  8444  0813                     ___fttol:	
  8445                           	opt	stack 5
  8446                           ; Regs used in ___fttol: [wreg+status,2+status,0]
  8447                           	line	49
  8448                           	
  8449  0813                     l5732:	
  8450  0813  1283               	bcf	status, 5	;RP0=0, select bank0
  8451  0814  1303               	bcf	status, 6	;RP1=0, select bank0
  8452  0815  0834               	movf	(___fttol@f1),w
  8453  0816  00B8               	movwf	((??___fttol+0)+0)
  8454  0817  0835               	movf	(___fttol@f1+1),w
  8455  0818  00B9               	movwf	((??___fttol+0)+0+1)
  8456  0819  0836               	movf	(___fttol@f1+2),w
  8457  081A  00BA               	movwf	((??___fttol+0)+0+2)
  8458  081B  1003               	clrc
  8459  081C  0D39               	rlf	(??___fttol+0)+1,w
  8460  081D  0D3A               	rlf	(??___fttol+0)+2,w
  8461  081E  00BB               	movwf	(??___fttol+3)+0
  8462  081F  083B               	movf	(??___fttol+3)+0,w
  8463  0820  00C1               	movwf	(___fttol@exp1)
  8464  0821  08C1               	movf	((___fttol@exp1)),f
  8465  0822  1D03               	skipz
  8466  0823  2825               	goto	u4131
  8467  0824  2826               	goto	u4130
  8468  0825                     u4131:
  8469  0825  2830               	goto	l5738
  8470  0826                     u4130:
  8471                           	line	50
  8472                           	
  8473  0826                     l5734:	
  8474  0826  3000               	movlw	0
  8475  0827  00B7               	movwf	(?___fttol+3)
  8476  0828  3000               	movlw	0
  8477  0829  00B6               	movwf	(?___fttol+2)
  8478  082A  3000               	movlw	0
  8479  082B  00B5               	movwf	(?___fttol+1)
  8480  082C  3000               	movlw	0
  8481  082D  00B4               	movwf	(?___fttol)
  8482                           
  8483  082E  28B8               	goto	l2342
  8484                           	
  8485  082F                     l5736:	
  8486  082F  28B8               	goto	l2342
  8487                           	
  8488  0830                     l2341:	
  8489                           	line	51
  8490                           	
  8491  0830                     l5738:	
  8492  0830  0834               	movf	(___fttol@f1),w
  8493  0831  00B8               	movwf	((??___fttol+0)+0)
  8494  0832  0835               	movf	(___fttol@f1+1),w
  8495  0833  00B9               	movwf	((??___fttol+0)+0+1)
  8496  0834  0836               	movf	(___fttol@f1+2),w
  8497  0835  00BA               	movwf	((??___fttol+0)+0+2)
  8498  0836  3017               	movlw	017h
  8499  0837                     u4145:
  8500  0837  1003               	clrc
  8501  0838  0CBA               	rrf	(??___fttol+0)+2,f
  8502  0839  0CB9               	rrf	(??___fttol+0)+1,f
  8503  083A  0CB8               	rrf	(??___fttol+0)+0,f
  8504  083B                     u4140:
  8505  083B  3EFF               	addlw	-1
  8506  083C  1D03               	skipz
  8507  083D  2837               	goto	u4145
  8508  083E  0838               	movf	0+(??___fttol+0)+0,w
  8509  083F  00BB               	movwf	(??___fttol+3)+0
  8510  0840  083B               	movf	(??___fttol+3)+0,w
  8511  0841  00BC               	movwf	(___fttol@sign1)
  8512                           	line	52
  8513                           	
  8514  0842                     l5740:	
  8515  0842  17B5               	bsf	(___fttol@f1)+(15/8),(15)&7
  8516                           	line	53
  8517                           	
  8518  0843                     l5742:	
  8519  0843  30FF               	movlw	0FFh
  8520  0844  05B4               	andwf	(___fttol@f1),f
  8521  0845  30FF               	movlw	0FFh
  8522  0846  05B5               	andwf	(___fttol@f1+1),f
  8523  0847  3000               	movlw	0
  8524  0848  05B6               	andwf	(___fttol@f1+2),f
  8525                           	line	54
  8526                           	
  8527  0849                     l5744:	
  8528  0849  0834               	movf	(___fttol@f1),w
  8529  084A  00BD               	movwf	(___fttol@lval)
  8530  084B  0835               	movf	(___fttol@f1+1),w
  8531  084C  00BE               	movwf	((___fttol@lval))+1
  8532  084D  0836               	movf	(___fttol@f1+2),w
  8533  084E  00BF               	movwf	((___fttol@lval))+2
  8534  084F  01C0               	clrf	((___fttol@lval))+3
  8535                           	line	55
  8536                           	
  8537  0850                     l5746:	
  8538  0850  308E               	movlw	low(08Eh)
  8539  0851  02C1               	subwf	(___fttol@exp1),f
  8540                           	line	56
  8541                           	
  8542  0852                     l5748:	
  8543  0852  1FC1               	btfss	(___fttol@exp1),7
  8544  0853  2855               	goto	u4151
  8545  0854  2856               	goto	u4150
  8546  0855                     u4151:
  8547  0855  287B               	goto	l5758
  8548  0856                     u4150:
  8549                           	line	57
  8550                           	
  8551  0856                     l5750:	
  8552  0856  0841               	movf	(___fttol@exp1),w
  8553  0857  3A80               	xorlw	80h
  8554  0858  3E8F               	addlw	-((-15)^80h)
  8555  0859  1803               	skipnc
  8556  085A  285C               	goto	u4161
  8557  085B  285D               	goto	u4160
  8558  085C                     u4161:
  8559  085C  2868               	goto	l5756
  8560  085D                     u4160:
  8561                           	line	58
  8562                           	
  8563  085D                     l5752:	
  8564  085D  3000               	movlw	0
  8565  085E  00B7               	movwf	(?___fttol+3)
  8566  085F  3000               	movlw	0
  8567  0860  00B6               	movwf	(?___fttol+2)
  8568  0861  3000               	movlw	0
  8569  0862  00B5               	movwf	(?___fttol+1)
  8570  0863  3000               	movlw	0
  8571  0864  00B4               	movwf	(?___fttol)
  8572                           
  8573  0865  28B8               	goto	l2342
  8574                           	
  8575  0866                     l5754:	
  8576  0866  28B8               	goto	l2342
  8577                           	
  8578  0867                     l2344:	
  8579  0867  2868               	goto	l5756
  8580                           	line	59
  8581                           	
  8582  0868                     l2345:	
  8583                           	line	60
  8584                           	
  8585  0868                     l5756:	
  8586  0868  3001               	movlw	01h
  8587  0869                     u4175:
  8588  0869  1003               	clrc
  8589  086A  0CC0               	rrf	(___fttol@lval+3),f
  8590  086B  0CBF               	rrf	(___fttol@lval+2),f
  8591  086C  0CBE               	rrf	(___fttol@lval+1),f
  8592  086D  0CBD               	rrf	(___fttol@lval),f
  8593  086E  3EFF               	addlw	-1
  8594  086F  1D03               	skipz
  8595  0870  2869               	goto	u4175
  8596                           
  8597                           	line	61
  8598  0871  3001               	movlw	(01h)
  8599  0872  00B8               	movwf	(??___fttol+0)+0
  8600  0873  0838               	movf	(??___fttol+0)+0,w
  8601  0874  07C1               	addwf	(___fttol@exp1),f
  8602  0875  1D03               	btfss	status,2
  8603  0876  2878               	goto	u4181
  8604  0877  2879               	goto	u4180
  8605  0878                     u4181:
  8606  0878  2868               	goto	l5756
  8607  0879                     u4180:
  8608  0879  289F               	goto	l5768
  8609                           	
  8610  087A                     l2346:	
  8611                           	line	62
  8612  087A  289F               	goto	l5768
  8613                           	
  8614  087B                     l2343:	
  8615                           	line	63
  8616                           	
  8617  087B                     l5758:	
  8618  087B  3018               	movlw	(018h)
  8619  087C  0241               	subwf	(___fttol@exp1),w
  8620  087D  1C03               	skipc
  8621  087E  2880               	goto	u4191
  8622  087F  2881               	goto	u4190
  8623  0880                     u4191:
  8624  0880  2898               	goto	l5766
  8625  0881                     u4190:
  8626                           	line	64
  8627                           	
  8628  0881                     l5760:	
  8629  0881  3000               	movlw	0
  8630  0882  00B7               	movwf	(?___fttol+3)
  8631  0883  3000               	movlw	0
  8632  0884  00B6               	movwf	(?___fttol+2)
  8633  0885  3000               	movlw	0
  8634  0886  00B5               	movwf	(?___fttol+1)
  8635  0887  3000               	movlw	0
  8636  0888  00B4               	movwf	(?___fttol)
  8637                           
  8638  0889  28B8               	goto	l2342
  8639                           	
  8640  088A                     l5762:	
  8641  088A  28B8               	goto	l2342
  8642                           	
  8643  088B                     l2348:	
  8644                           	line	65
  8645  088B  2898               	goto	l5766
  8646                           	
  8647  088C                     l2350:	
  8648                           	line	66
  8649                           	
  8650  088C                     l5764:	
  8651  088C  3001               	movlw	01h
  8652  088D  00B8               	movwf	(??___fttol+0)+0
  8653  088E                     u4205:
  8654  088E  1003               	clrc
  8655  088F  0DBD               	rlf	(___fttol@lval),f
  8656  0890  0DBE               	rlf	(___fttol@lval+1),f
  8657  0891  0DBF               	rlf	(___fttol@lval+2),f
  8658  0892  0DC0               	rlf	(___fttol@lval+3),f
  8659  0893  0BB8               	decfsz	(??___fttol+0)+0
  8660  0894  288E               	goto	u4205
  8661                           	line	67
  8662  0895  3001               	movlw	low(01h)
  8663  0896  02C1               	subwf	(___fttol@exp1),f
  8664  0897  2898               	goto	l5766
  8665                           	line	68
  8666                           	
  8667  0898                     l2349:	
  8668                           	line	65
  8669                           	
  8670  0898                     l5766:	
  8671  0898  08C1               	movf	(___fttol@exp1),f
  8672  0899  1D03               	skipz
  8673  089A  289C               	goto	u4211
  8674  089B  289D               	goto	u4210
  8675  089C                     u4211:
  8676  089C  288C               	goto	l5764
  8677  089D                     u4210:
  8678  089D  289F               	goto	l5768
  8679                           	
  8680  089E                     l2351:	
  8681  089E  289F               	goto	l5768
  8682                           	line	69
  8683                           	
  8684  089F                     l2347:	
  8685                           	line	70
  8686                           	
  8687  089F                     l5768:	
  8688  089F  083C               	movf	(___fttol@sign1),w
  8689  08A0  1D03               	skipz
  8690  08A1  28A3               	goto	u4220
  8691  08A2  28AF               	goto	l5772
  8692  08A3                     u4220:
  8693                           	line	71
  8694                           	
  8695  08A3                     l5770:	
  8696  08A3  09BD               	comf	(___fttol@lval),f
  8697  08A4  09BE               	comf	(___fttol@lval+1),f
  8698  08A5  09BF               	comf	(___fttol@lval+2),f
  8699  08A6  09C0               	comf	(___fttol@lval+3),f
  8700  08A7  0ABD               	incf	(___fttol@lval),f
  8701  08A8  1903               	skipnz
  8702  08A9  0ABE               	incf	(___fttol@lval+1),f
  8703  08AA  1903               	skipnz
  8704  08AB  0ABF               	incf	(___fttol@lval+2),f
  8705  08AC  1903               	skipnz
  8706  08AD  0AC0               	incf	(___fttol@lval+3),f
  8707  08AE  28AF               	goto	l5772
  8708                           	
  8709  08AF                     l2352:	
  8710                           	line	72
  8711                           	
  8712  08AF                     l5772:	
  8713  08AF  0840               	movf	(___fttol@lval+3),w
  8714  08B0  00B7               	movwf	(?___fttol+3)
  8715  08B1  083F               	movf	(___fttol@lval+2),w
  8716  08B2  00B6               	movwf	(?___fttol+2)
  8717  08B3  083E               	movf	(___fttol@lval+1),w
  8718  08B4  00B5               	movwf	(?___fttol+1)
  8719  08B5  083D               	movf	(___fttol@lval),w
  8720  08B6  00B4               	movwf	(?___fttol)
  8721                           
  8722  08B7  28B8               	goto	l2342
  8723                           	
  8724  08B8                     l5774:	
  8725                           	line	73
  8726                           	
  8727  08B8                     l2342:	
  8728  08B8  0008               	return
  8729                           	opt stack 0
  8730                           GLOBAL	__end_of___fttol
  8731  08B9                     	__end_of___fttol:
  8732 ;; =============== function ___fttol ends ============
  8733                           
  8734                           	signat	___fttol,4220
  8735                           	global	___ftpack
  8736                           psect	text776,local,class=CODE,delta=2
  8737                           global __ptext776
  8738  1250                     __ptext776:
  8739                           
  8740 ;; *************** function ___ftpack *****************
  8741 ;; Defined at:
  8742 ;;		line 63 in file "C:\Program Files (x86)\HI-TECH Software\PICC\9.83\sources\float.c"
  8743 ;; Parameters:    Size  Location     Type
  8744 ;;  arg             3    0[BANK0 ] unsigned um
  8745 ;;  exp             1    3[BANK0 ] unsigned char 
  8746 ;;  sign            1    4[BANK0 ] unsigned char 
  8747 ;; Auto vars:     Size  Location     Type
  8748 ;;		None
  8749 ;; Return value:  Size  Location     Type
  8750 ;;                  3    0[BANK0 ] float 
  8751 ;; Registers used:
  8752 ;;		wreg, status,2, status,0
  8753 ;; Tracked objects:
  8754 ;;		On entry : 0/0
  8755 ;;		On exit  : 0/0
  8756 ;;		Unchanged: 0/0
  8757 ;; Data sizes:     COMMON   BANK0   BANK1   BANK3   BANK2
  8758 ;;      Params:         0       5       0       0       0
  8759 ;;      Locals:         0       0       0       0       0
  8760 ;;      Temps:          0       3       0       0       0
  8761 ;;      Totals:         0       8       0       0       0
  8762 ;;Total ram usage:        8 bytes
  8763 ;; Hardware stack levels used:    1
  8764 ;; Hardware stack levels required when called:    1
  8765 ;; This function calls:
  8766 ;;		Nothing
  8767 ;; This function is called by:
  8768 ;;		___ftadd
  8769 ;;		___ftdiv
  8770 ;;		___ftmul
  8771 ;;		___lwtoft
  8772 ;;		___lltoft
  8773 ;;		___lbtoft
  8774 ;;		___abtoft
  8775 ;;		___awtoft
  8776 ;;		___altoft
  8777 ;;		___attoft
  8778 ;;		___lttoft
  8779 ;; This function uses a non-reentrant model
  8780 ;;
  8781                           psect	text776
  8782                           	file	"C:\Program Files (x86)\HI-TECH Software\PICC\9.83\sources\float.c"
  8783                           	line	63
  8784                           	global	__size_of___ftpack
  8785  007D                     	__size_of___ftpack	equ	__end_of___ftpack-___ftpack
  8786                           	
  8787  1250                     ___ftpack:	
  8788                           	opt	stack 3
  8789                           ; Regs used in ___ftpack: [wreg+status,2+status,0]
  8790                           	line	64
  8791                           	
  8792  1250                     l5702:	
  8793  1250  1283               	bcf	status, 5	;RP0=0, select bank0
  8794  1251  1303               	bcf	status, 6	;RP1=0, select bank0
  8795  1252  0823               	movf	(___ftpack@exp),w
  8796  1253  1D03               	skipz
  8797  1254  2A56               	goto	u4020
  8798  1255  2A5E               	goto	l5706
  8799  1256                     u4020:
  8800                           	
  8801  1256                     l5704:	
  8802  1256  0822               	movf	(___ftpack@arg+2),w
  8803  1257  0421               	iorwf	(___ftpack@arg+1),w
  8804  1258  0420               	iorwf	(___ftpack@arg),w
  8805  1259  1D03               	skipz
  8806  125A  2A5C               	goto	u4031
  8807  125B  2A5D               	goto	u4030
  8808  125C                     u4031:
  8809  125C  2A74               	goto	l5712
  8810  125D                     u4030:
  8811  125D  2A5E               	goto	l5706
  8812                           	
  8813  125E                     l2600:	
  8814                           	line	65
  8815                           	
  8816  125E                     l5706:	
  8817  125E  3000               	movlw	0x0
  8818  125F  00A0               	movwf	(?___ftpack)
  8819  1260  3000               	movlw	0x0
  8820  1261  00A1               	movwf	(?___ftpack+1)
  8821  1262  3000               	movlw	0x0
  8822  1263  00A2               	movwf	(?___ftpack+2)
  8823  1264  2ACC               	goto	l2601
  8824                           	
  8825  1265                     l5708:	
  8826  1265  2ACC               	goto	l2601
  8827                           	
  8828  1266                     l2598:	
  8829                           	line	66
  8830  1266  2A74               	goto	l5712
  8831                           	
  8832  1267                     l2603:	
  8833                           	line	67
  8834                           	
  8835  1267                     l5710:	
  8836  1267  3001               	movlw	(01h)
  8837  1268  00A5               	movwf	(??___ftpack+0)+0
  8838  1269  0825               	movf	(??___ftpack+0)+0,w
  8839  126A  07A3               	addwf	(___ftpack@exp),f
  8840                           	line	68
  8841  126B  3001               	movlw	01h
  8842  126C                     u4045:
  8843  126C  1003               	clrc
  8844  126D  0CA2               	rrf	(___ftpack@arg+2),f
  8845  126E  0CA1               	rrf	(___ftpack@arg+1),f
  8846  126F  0CA0               	rrf	(___ftpack@arg),f
  8847  1270  3EFF               	addlw	-1
  8848  1271  1D03               	skipz
  8849  1272  2A6C               	goto	u4045
  8850                           
  8851  1273  2A74               	goto	l5712
  8852                           	line	69
  8853                           	
  8854  1274                     l2602:	
  8855                           	line	66
  8856                           	
  8857  1274                     l5712:	
  8858  1274  30FE               	movlw	low highword(0FE0000h)
  8859  1275  0522               	andwf	(___ftpack@arg+2),w
  8860  1276  1D03               	btfss	status,2
  8861  1277  2A79               	goto	u4051
  8862  1278  2A7A               	goto	u4050
  8863  1279                     u4051:
  8864  1279  2A67               	goto	l5710
  8865  127A                     u4050:
  8866  127A  2A92               	goto	l2605
  8867                           	
  8868  127B                     l2604:	
  8869                           	line	70
  8870  127B  2A92               	goto	l2605
  8871                           	
  8872  127C                     l2606:	
  8873                           	line	71
  8874                           	
  8875  127C                     l5714:	
  8876  127C  3001               	movlw	(01h)
  8877  127D  00A5               	movwf	(??___ftpack+0)+0
  8878  127E  0825               	movf	(??___ftpack+0)+0,w
  8879  127F  07A3               	addwf	(___ftpack@exp),f
  8880                           	line	72
  8881                           	
  8882  1280                     l5716:	
  8883  1280  3001               	movlw	01h
  8884  1281  07A0               	addwf	(___ftpack@arg),f
  8885  1282  3000               	movlw	0
  8886  1283  1803               	skipnc
  8887  1284  3001               movlw 1
  8888  1285  07A1               	addwf	(___ftpack@arg+1),f
  8889  1286  3000               	movlw	0
  8890  1287  1803               	skipnc
  8891  1288  3001               movlw 1
  8892  1289  07A2               	addwf	(___ftpack@arg+2),f
  8893                           	line	73
  8894                           	
  8895  128A                     l5718:	
  8896  128A  3001               	movlw	01h
  8897  128B                     u4065:
  8898  128B  1003               	clrc
  8899  128C  0CA2               	rrf	(___ftpack@arg+2),f
  8900  128D  0CA1               	rrf	(___ftpack@arg+1),f
  8901  128E  0CA0               	rrf	(___ftpack@arg),f
  8902  128F  3EFF               	addlw	-1
  8903  1290  1D03               	skipz
  8904  1291  2A8B               	goto	u4065
  8905                           
  8906                           	line	74
  8907                           	
  8908  1292                     l2605:	
  8909                           	line	70
  8910  1292  30FF               	movlw	low highword(0FF0000h)
  8911  1293  0522               	andwf	(___ftpack@arg+2),w
  8912  1294  1D03               	btfss	status,2
  8913  1295  2A97               	goto	u4071
  8914  1296  2A98               	goto	u4070
  8915  1297                     u4071:
  8916  1297  2A7C               	goto	l5714
  8917  1298                     u4070:
  8918  1298  2AA5               	goto	l5722
  8919                           	
  8920  1299                     l2607:	
  8921                           	line	75
  8922  1299  2AA5               	goto	l5722
  8923                           	
  8924  129A                     l2609:	
  8925                           	line	76
  8926                           	
  8927  129A                     l5720:	
  8928  129A  3001               	movlw	low(01h)
  8929  129B  02A3               	subwf	(___ftpack@exp),f
  8930                           	line	77
  8931  129C  3001               	movlw	01h
  8932  129D                     u4085:
  8933  129D  1003               	clrc
  8934  129E  0DA0               	rlf	(___ftpack@arg),f
  8935  129F  0DA1               	rlf	(___ftpack@arg+1),f
  8936  12A0  0DA2               	rlf	(___ftpack@arg+2),f
  8937  12A1  3EFF               	addlw	-1
  8938  12A2  1D03               	skipz
  8939  12A3  2A9D               	goto	u4085
  8940  12A4  2AA5               	goto	l5722
  8941                           	line	78
  8942                           	
  8943  12A5                     l2608:	
  8944                           	line	75
  8945                           	
  8946  12A5                     l5722:	
  8947  12A5  1FA1               	btfss	(___ftpack@arg+1),(15)&7
  8948  12A6  2AA8               	goto	u4091
  8949  12A7  2AA9               	goto	u4090
  8950  12A8                     u4091:
  8951  12A8  2A9A               	goto	l5720
  8952  12A9                     u4090:
  8953                           	
  8954  12A9                     l2610:	
  8955                           	line	79
  8956  12A9  1823               	btfsc	(___ftpack@exp),(0)&7
  8957  12AA  2AAC               	goto	u4101
  8958  12AB  2AAD               	goto	u4100
  8959  12AC                     u4101:
  8960  12AC  2AB3               	goto	l2611
  8961  12AD                     u4100:
  8962                           	line	80
  8963                           	
  8964  12AD                     l5724:	
  8965  12AD  30FF               	movlw	0FFh
  8966  12AE  05A0               	andwf	(___ftpack@arg),f
  8967  12AF  307F               	movlw	07Fh
  8968  12B0  05A1               	andwf	(___ftpack@arg+1),f
  8969  12B1  30FF               	movlw	0FFh
  8970  12B2  05A2               	andwf	(___ftpack@arg+2),f
  8971                           	
  8972  12B3                     l2611:	
  8973                           	line	81
  8974  12B3  1003               	clrc
  8975  12B4  0CA3               	rrf	(___ftpack@exp),f
  8976                           
  8977                           	line	82
  8978                           	
  8979  12B5                     l5726:	
  8980  12B5  0823               	movf	(___ftpack@exp),w
  8981  12B6  00A5               	movwf	((??___ftpack+0)+0)
  8982  12B7  01A6               	clrf	((??___ftpack+0)+0+1)
  8983  12B8  01A7               	clrf	((??___ftpack+0)+0+2)
  8984  12B9  3010               	movlw	010h
  8985  12BA                     u4115:
  8986  12BA  1003               	clrc
  8987  12BB  0DA5               	rlf	(??___ftpack+0)+0,f
  8988  12BC  0DA6               	rlf	(??___ftpack+0)+1,f
  8989  12BD  0DA7               	rlf	(??___ftpack+0)+2,f
  8990  12BE                     u4110:
  8991  12BE  3EFF               	addlw	-1
  8992  12BF  1D03               	skipz
  8993  12C0  2ABA               	goto	u4115
  8994  12C1  0825               	movf	0+(??___ftpack+0)+0,w
  8995  12C2  04A0               	iorwf	(___ftpack@arg),f
  8996  12C3  0826               	movf	1+(??___ftpack+0)+0,w
  8997  12C4  04A1               	iorwf	(___ftpack@arg+1),f
  8998  12C5  0827               	movf	2+(??___ftpack+0)+0,w
  8999  12C6  04A2               	iorwf	(___ftpack@arg+2),f
  9000                           	line	83
  9001                           	
  9002  12C7                     l5728:	
  9003  12C7  0824               	movf	(___ftpack@sign),w
  9004  12C8  1D03               	skipz
  9005  12C9  2ACB               	goto	u4120
  9006  12CA  2ACC               	goto	l2612
  9007  12CB                     u4120:
  9008                           	line	84
  9009                           	
  9010  12CB                     l5730:	
  9011  12CB  17A2               	bsf	(___ftpack@arg)+(23/8),(23)&7
  9012                           	
  9013  12CC                     l2612:	
  9014                           	line	85
  9015                           	line	86
  9016                           	
  9017  12CC                     l2601:	
  9018  12CC  0008               	return
  9019                           	opt stack 0
  9020                           GLOBAL	__end_of___ftpack
  9021  12CD                     	__end_of___ftpack:
  9022 ;; =============== function ___ftpack ends ============
  9023                           
  9024                           	signat	___ftpack,12411
  9025                           	global	___wmul
  9026                           psect	text777,local,class=CODE,delta=2
  9027                           global __ptext777
  9028  1F0E                     __ptext777:
  9029                           
  9030 ;; *************** function ___wmul *****************
  9031 ;; Defined at:
  9032 ;;		line 3 in file "C:\Program Files (x86)\HI-TECH Software\PICC\9.83\sources\wmul.c"
  9033 ;; Parameters:    Size  Location     Type
  9034 ;;  multiplier      2    0[BANK0 ] unsigned int 
  9035 ;;  multiplicand    2    2[BANK0 ] unsigned int 
  9036 ;; Auto vars:     Size  Location     Type
  9037 ;;  product         2    4[BANK0 ] unsigned int 
  9038 ;; Return value:  Size  Location     Type
  9039 ;;                  2    0[BANK0 ] unsigned int 
  9040 ;; Registers used:
  9041 ;;		wreg, status,2, status,0
  9042 ;; Tracked objects:
  9043 ;;		On entry : 0/0
  9044 ;;		On exit  : 0/0
  9045 ;;		Unchanged: 0/0
  9046 ;; Data sizes:     COMMON   BANK0   BANK1   BANK3   BANK2
  9047 ;;      Params:         0       4       0       0       0
  9048 ;;      Locals:         0       2       0       0       0
  9049 ;;      Temps:          0       0       0       0       0
  9050 ;;      Totals:         0       6       0       0       0
  9051 ;;Total ram usage:        6 bytes
  9052 ;; Hardware stack levels used:    1
  9053 ;; Hardware stack levels required when called:    1
  9054 ;; This function calls:
  9055 ;;		Nothing
  9056 ;; This function is called by:
  9057 ;;		_main
  9058 ;;		_fround
  9059 ;;		_scale
  9060 ;;		_printf
  9061 ;; This function uses a non-reentrant model
  9062 ;;
  9063                           psect	text777
  9064                           	file	"C:\Program Files (x86)\HI-TECH Software\PICC\9.83\sources\wmul.c"
  9065                           	line	3
  9066                           	global	__size_of___wmul
  9067  002C                     	__size_of___wmul	equ	__end_of___wmul-___wmul
  9068                           	
  9069  1F0E                     ___wmul:	
  9070                           	opt	stack 5
  9071                           ; Regs used in ___wmul: [wreg+status,2+status,0]
  9072                           	line	4
  9073                           	
  9074  1F0E                     l6674:	
  9075  1F0E  1283               	bcf	status, 5	;RP0=0, select bank0
  9076  1F0F  1303               	bcf	status, 6	;RP1=0, select bank0
  9077  1F10  01A4               	clrf	(___wmul@product)
  9078  1F11  01A5               	clrf	(___wmul@product+1)
  9079  1F12  2F13               	goto	l6676
  9080                           	line	6
  9081                           	
  9082  1F13                     l2232:	
  9083                           	line	7
  9084                           	
  9085  1F13                     l6676:	
  9086  1F13  1C20               	btfss	(___wmul@multiplier),(0)&7
  9087  1F14  2F16               	goto	u5641
  9088  1F15  2F17               	goto	u5640
  9089  1F16                     u5641:
  9090  1F16  2F1D               	goto	l2233
  9091  1F17                     u5640:
  9092                           	line	8
  9093                           	
  9094  1F17                     l6678:	
  9095  1F17  0822               	movf	(___wmul@multiplicand),w
  9096  1F18  07A4               	addwf	(___wmul@product),f
  9097  1F19  1803               	skipnc
  9098  1F1A  0AA5               	incf	(___wmul@product+1),f
  9099  1F1B  0823               	movf	(___wmul@multiplicand+1),w
  9100  1F1C  07A5               	addwf	(___wmul@product+1),f
  9101                           	
  9102  1F1D                     l2233:	
  9103                           	line	9
  9104  1F1D  3001               	movlw	01h
  9105                           	
  9106  1F1E                     u5655:
  9107  1F1E  1003               	clrc
  9108  1F1F  0DA2               	rlf	(___wmul@multiplicand),f
  9109  1F20  0DA3               	rlf	(___wmul@multiplicand+1),f
  9110  1F21  3EFF               	addlw	-1
  9111  1F22  1D03               	skipz
  9112  1F23  2F1E               	goto	u5655
  9113                           	line	10
  9114                           	
  9115  1F24                     l6680:	
  9116  1F24  3001               	movlw	01h
  9117                           	
  9118  1F25                     u5665:
  9119  1F25  1003               	clrc
  9120  1F26  0CA1               	rrf	(___wmul@multiplier+1),f
  9121  1F27  0CA0               	rrf	(___wmul@multiplier),f
  9122  1F28  3EFF               	addlw	-1
  9123  1F29  1D03               	skipz
  9124  1F2A  2F25               	goto	u5665
  9125                           	line	11
  9126  1F2B  0821               	movf	((___wmul@multiplier+1)),w
  9127  1F2C  0420               	iorwf	((___wmul@multiplier)),w
  9128  1F2D  1D03               	skipz
  9129  1F2E  2F30               	goto	u5671
  9130  1F2F  2F31               	goto	u5670
  9131  1F30                     u5671:
  9132  1F30  2F13               	goto	l6676
  9133  1F31                     u5670:
  9134  1F31  2F32               	goto	l6682
  9135                           	
  9136  1F32                     l2234:	
  9137                           	line	12
  9138                           	
  9139  1F32                     l6682:	
  9140  1F32  0825               	movf	(___wmul@product+1),w
  9141  1F33  01A1               	clrf	(?___wmul+1)
  9142  1F34  07A1               	addwf	(?___wmul+1)
  9143  1F35  0824               	movf	(___wmul@product),w
  9144  1F36  01A0               	clrf	(?___wmul)
  9145  1F37  07A0               	addwf	(?___wmul)
  9146                           
  9147  1F38  2F39               	goto	l2235
  9148                           	
  9149  1F39                     l6684:	
  9150                           	line	13
  9151                           	
  9152  1F39                     l2235:	
  9153  1F39  0008               	return
  9154                           	opt stack 0
  9155                           GLOBAL	__end_of___wmul
  9156  1F3A                     	__end_of___wmul:
  9157 ;; =============== function ___wmul ends ============
  9158                           
  9159                           	signat	___wmul,8314
  9160                           	global	___bmul
  9161                           psect	text778,local,class=CODE,delta=2
  9162                           global __ptext778
  9163  1EBE                     __ptext778:
  9164                           
  9165 ;; *************** function ___bmul *****************
  9166 ;; Defined at:
  9167 ;;		line 3 in file "C:\Program Files (x86)\HI-TECH Software\PICC\9.83\sources\bmul.c"
  9168 ;; Parameters:    Size  Location     Type
  9169 ;;  multiplier      1    wreg     unsigned char 
  9170 ;;  multiplicand    1   16[BANK0 ] unsigned char 
  9171 ;; Auto vars:     Size  Location     Type
  9172 ;;  multiplier      1   19[BANK0 ] unsigned char 
  9173 ;;  product         1   18[BANK0 ] unsigned char 
  9174 ;; Return value:  Size  Location     Type
  9175 ;;                  1    wreg      unsigned char 
  9176 ;; Registers used:
  9177 ;;		wreg, status,2, status,0
  9178 ;; Tracked objects:
  9179 ;;		On entry : 0/0
  9180 ;;		On exit  : 0/0
  9181 ;;		Unchanged: 0/0
  9182 ;; Data sizes:     COMMON   BANK0   BANK1   BANK3   BANK2
  9183 ;;      Params:         0       1       0       0       0
  9184 ;;      Locals:         0       2       0       0       0
  9185 ;;      Temps:          0       1       0       0       0
  9186 ;;      Totals:         0       4       0       0       0
  9187 ;;Total ram usage:        4 bytes
  9188 ;; Hardware stack levels used:    1
  9189 ;; Hardware stack levels required when called:    1
  9190 ;; This function calls:
  9191 ;;		Nothing
  9192 ;; This function is called by:
  9193 ;;		_fround
  9194 ;;		_scale
  9195 ;; This function uses a non-reentrant model
  9196 ;;
  9197                           psect	text778
  9198                           	file	"C:\Program Files (x86)\HI-TECH Software\PICC\9.83\sources\bmul.c"
  9199                           	line	3
  9200                           	global	__size_of___bmul
  9201  001A                     	__size_of___bmul	equ	__end_of___bmul-___bmul
  9202                           	
  9203  1EBE                     ___bmul:	
  9204                           	opt	stack 4
  9205                           ; Regs used in ___bmul: [wreg+status,2+status,0]
  9206                           ;___bmul@multiplier stored from wreg
  9207  1EBE  1283               	bcf	status, 5	;RP0=0, select bank0
  9208  1EBF  1303               	bcf	status, 6	;RP1=0, select bank0
  9209  1EC0  00B3               	movwf	(___bmul@multiplier)
  9210                           	line	4
  9211                           	
  9212  1EC1                     l5676:	
  9213  1EC1  01B2               	clrf	(___bmul@product)
  9214                           	line	6
  9215                           	
  9216  1EC2                     l2226:	
  9217                           	line	7
  9218  1EC2  1C33               	btfss	(___bmul@multiplier),(0)&7
  9219  1EC3  2EC5               	goto	u3961
  9220  1EC4  2EC6               	goto	u3960
  9221  1EC5                     u3961:
  9222  1EC5  2ECB               	goto	l5680
  9223  1EC6                     u3960:
  9224                           	line	8
  9225                           	
  9226  1EC6                     l5678:	
  9227  1EC6  0830               	movf	(___bmul@multiplicand),w
  9228  1EC7  00B1               	movwf	(??___bmul+0)+0
  9229  1EC8  0831               	movf	(??___bmul+0)+0,w
  9230  1EC9  07B2               	addwf	(___bmul@product),f
  9231  1ECA  2ECB               	goto	l5680
  9232                           	
  9233  1ECB                     l2227:	
  9234                           	line	9
  9235                           	
  9236  1ECB                     l5680:	
  9237  1ECB  1003               	clrc
  9238  1ECC  0DB0               	rlf	(___bmul@multiplicand),f
  9239                           
  9240                           	line	10
  9241                           	
  9242  1ECD                     l5682:	
  9243  1ECD  1003               	clrc
  9244  1ECE  0CB3               	rrf	(___bmul@multiplier),f
  9245                           
  9246                           	line	11
  9247                           	
  9248  1ECF                     l5684:	
  9249  1ECF  08B3               	movf	(___bmul@multiplier),f
  9250  1ED0  1D03               	skipz
  9251  1ED1  2ED3               	goto	u3971
  9252  1ED2  2ED4               	goto	u3970
  9253  1ED3                     u3971:
  9254  1ED3  2EC2               	goto	l2226
  9255  1ED4                     u3970:
  9256  1ED4  2ED5               	goto	l5686
  9257                           	
  9258  1ED5                     l2228:	
  9259                           	line	12
  9260                           	
  9261  1ED5                     l5686:	
  9262  1ED5  0832               	movf	(___bmul@product),w
  9263  1ED6  2ED7               	goto	l2229
  9264                           	
  9265  1ED7                     l5688:	
  9266                           	line	13
  9267                           	
  9268  1ED7                     l2229:	
  9269  1ED7  0008               	return
  9270                           	opt stack 0
  9271                           GLOBAL	__end_of___bmul
  9272  1ED8                     	__end_of___bmul:
  9273 ;; =============== function ___bmul ends ============
  9274                           
  9275                           	signat	___bmul,8313
  9276                           	global	__div_to_l_
  9277                           psect	text779,local,class=CODE,delta=2
  9278                           global __ptext779
  9279  16AB                     __ptext779:
  9280                           
  9281 ;; *************** function __div_to_l_ *****************
  9282 ;; Defined at:
  9283 ;;		line 61 in file "C:\Program Files (x86)\HI-TECH Software\PICC\9.83\sources\fldivl.c"
  9284 ;; Parameters:    Size  Location     Type
  9285 ;;  f1              3    0[BANK0 ] unsigned char 
  9286 ;;  f2              3    3[BANK0 ] unsigned char 
  9287 ;; Auto vars:     Size  Location     Type
  9288 ;;  quot            4   14[BANK0 ] unsigned long 
  9289 ;;  exp1            1   19[BANK0 ] unsigned char 
  9290 ;;  cntr            1   18[BANK0 ] unsigned char 
  9291 ;; Return value:  Size  Location     Type
  9292 ;;                  4    0[BANK0 ] unsigned long 
  9293 ;; Registers used:
  9294 ;;		wreg, fsr0l, fsr0h, status,2, status,0
  9295 ;; Tracked objects:
  9296 ;;		On entry : 0/0
  9297 ;;		On exit  : 0/0
  9298 ;;		Unchanged: 0/0
  9299 ;; Data sizes:     COMMON   BANK0   BANK1   BANK3   BANK2
  9300 ;;      Params:         0       6       0       0       0
  9301 ;;      Locals:         0       6       0       0       0
  9302 ;;      Temps:          0       8       0       0       0
  9303 ;;      Totals:         0      20       0       0       0
  9304 ;;Total ram usage:       20 bytes
  9305 ;; Hardware stack levels used:    1
  9306 ;; Hardware stack levels required when called:    1
  9307 ;; This function calls:
  9308 ;;		Nothing
  9309 ;; This function is called by:
  9310 ;;		_printf
  9311 ;; This function uses a non-reentrant model
  9312 ;;
  9313                           psect	text779
  9314                           	file	"C:\Program Files (x86)\HI-TECH Software\PICC\9.83\sources\fldivl.c"
  9315                           	line	61
  9316                           	global	__size_of__div_to_l_
  9317  0155                     	__size_of__div_to_l_	equ	__end_of__div_to_l_-__div_to_l_
  9318                           	
  9319  16AB                     __div_to_l_:	
  9320                           	opt	stack 5
  9321                           ; Regs used in __div_to_l_: [wreg-fsr0h+status,2+status,0]
  9322                           	line	66
  9323                           	
  9324  16AB                     l5622:	
  9325  16AB  3020               	movlw	low(__div_to_l_@f1)
  9326  16AC  0084               	movwf	fsr0
  9327  16AD  1383               	bcf	status, 7	;select IRP bank0
  9328  16AE  0800               	movf	indf,w
  9329  16AF  1283               	bcf	status, 5	;RP0=0, select bank0
  9330  16B0  1303               	bcf	status, 6	;RP1=0, select bank0
  9331  16B1  00A6               	movwf	(??__div_to_l_+0)+0+0
  9332  16B2  0A84               	incf	fsr0,f
  9333  16B3  0800               	movf	indf,w
  9334  16B4  00A7               	movwf	(??__div_to_l_+0)+0+1
  9335  16B5  0A84               	incf	fsr0,f
  9336  16B6  0800               	movf	indf,w
  9337  16B7  00A8               	movwf	(??__div_to_l_+0)+0+2
  9338  16B8  0A84               	incf	fsr0,f
  9339  16B9  0800               	movf	indf,w
  9340  16BA  00A9               	movwf	(??__div_to_l_+0)+0+3
  9341  16BB  1003               	clrc
  9342  16BC  0D28               	rlf	(??__div_to_l_+0)+2,w
  9343  16BD  0D29               	rlf	(??__div_to_l_+0)+3,w
  9344  16BE  00AA               	movwf	(??__div_to_l_+4)+0
  9345  16BF  082A               	movf	(??__div_to_l_+4)+0,w
  9346  16C0  00B3               	movwf	(__div_to_l_@exp1)
  9347  16C1  08B3               	movf	((__div_to_l_@exp1)),f
  9348  16C2  1D03               	skipz
  9349  16C3  2EC5               	goto	u3831
  9350  16C4  2EC6               	goto	u3830
  9351  16C5                     u3831:
  9352  16C5  2ED0               	goto	l5628
  9353  16C6                     u3830:
  9354                           	line	67
  9355                           	
  9356  16C6                     l5624:	
  9357  16C6  3000               	movlw	0
  9358  16C7  00A3               	movwf	(?__div_to_l_+3)
  9359  16C8  3000               	movlw	0
  9360  16C9  00A2               	movwf	(?__div_to_l_+2)
  9361  16CA  3000               	movlw	0
  9362  16CB  00A1               	movwf	(?__div_to_l_+1)
  9363  16CC  3000               	movlw	0
  9364  16CD  00A0               	movwf	(?__div_to_l_)
  9365                           
  9366  16CE  2FFF               	goto	l2519
  9367                           	
  9368  16CF                     l5626:	
  9369  16CF  2FFF               	goto	l2519
  9370                           	
  9371  16D0                     l2518:	
  9372                           	line	68
  9373                           	
  9374  16D0                     l5628:	
  9375  16D0  3023               	movlw	low(__div_to_l_@f2)
  9376  16D1  0084               	movwf	fsr0
  9377  16D2  0800               	movf	indf,w
  9378  16D3  00A6               	movwf	(??__div_to_l_+0)+0+0
  9379  16D4  0A84               	incf	fsr0,f
  9380  16D5  0800               	movf	indf,w
  9381  16D6  00A7               	movwf	(??__div_to_l_+0)+0+1
  9382  16D7  0A84               	incf	fsr0,f
  9383  16D8  0800               	movf	indf,w
  9384  16D9  00A8               	movwf	(??__div_to_l_+0)+0+2
  9385  16DA  0A84               	incf	fsr0,f
  9386  16DB  0800               	movf	indf,w
  9387  16DC  00A9               	movwf	(??__div_to_l_+0)+0+3
  9388  16DD  1003               	clrc
  9389  16DE  0D28               	rlf	(??__div_to_l_+0)+2,w
  9390  16DF  0D29               	rlf	(??__div_to_l_+0)+3,w
  9391  16E0  00AA               	movwf	(??__div_to_l_+4)+0
  9392  16E1  082A               	movf	(??__div_to_l_+4)+0,w
  9393  16E2  00B2               	movwf	(__div_to_l_@cntr)
  9394  16E3  08B2               	movf	((__div_to_l_@cntr)),f
  9395  16E4  1D03               	skipz
  9396  16E5  2EE7               	goto	u3841
  9397  16E6  2EE8               	goto	u3840
  9398  16E7                     u3841:
  9399  16E7  2EF2               	goto	l5634
  9400  16E8                     u3840:
  9401                           	line	69
  9402                           	
  9403  16E8                     l5630:	
  9404  16E8  3000               	movlw	0
  9405  16E9  00A3               	movwf	(?__div_to_l_+3)
  9406  16EA  3000               	movlw	0
  9407  16EB  00A2               	movwf	(?__div_to_l_+2)
  9408  16EC  3000               	movlw	0
  9409  16ED  00A1               	movwf	(?__div_to_l_+1)
  9410  16EE  3000               	movlw	0
  9411  16EF  00A0               	movwf	(?__div_to_l_)
  9412                           
  9413  16F0  2FFF               	goto	l2519
  9414                           	
  9415  16F1                     l5632:	
  9416  16F1  2FFF               	goto	l2519
  9417                           	
  9418  16F2                     l2520:	
  9419                           	line	70
  9420                           	
  9421  16F2                     l5634:	
  9422  16F2  3020               	movlw	low(__div_to_l_@f1)
  9423  16F3  0084               	movwf	fsr0
  9424  16F4  3000               	movlw	0
  9425  16F5  0480               	iorwf	indf,f
  9426  16F6  0A84               	incf	fsr0,f
  9427  16F7  3000               	movlw	0
  9428  16F8  0480               	iorwf	indf,f
  9429  16F9  0A84               	incf	fsr0,f
  9430  16FA  3080               	movlw	080h
  9431  16FB  0480               	iorwf	indf,f
  9432  16FC  0A84               	incf	fsr0,f
  9433  16FD  3000               	movlw	0
  9434  16FE  0480               	iorwf	indf,f
  9435                           	line	71
  9436  16FF  3020               	movlw	low(__div_to_l_@f1)
  9437  1700  0084               	movwf	fsr0
  9438  1701  30FF               	movlw	0FFh
  9439  1702  0580               	andwf	indf,f
  9440  1703  0A84               	incf	fsr0,f
  9441  1704  30FF               	movlw	0FFh
  9442  1705  0580               	andwf	indf,f
  9443  1706  0A84               	incf	fsr0,f
  9444  1707  30FF               	movlw	0FFh
  9445  1708  0580               	andwf	indf,f
  9446  1709  0A84               	incf	fsr0,f
  9447  170A  3000               	movlw	0
  9448  170B  0580               	andwf	indf,f
  9449                           	line	72
  9450  170C  3023               	movlw	low(__div_to_l_@f2)
  9451  170D  0084               	movwf	fsr0
  9452  170E  3000               	movlw	0
  9453  170F  0480               	iorwf	indf,f
  9454  1710  0A84               	incf	fsr0,f
  9455  1711  3000               	movlw	0
  9456  1712  0480               	iorwf	indf,f
  9457  1713  0A84               	incf	fsr0,f
  9458  1714  3080               	movlw	080h
  9459  1715  0480               	iorwf	indf,f
  9460  1716  0A84               	incf	fsr0,f
  9461  1717  3000               	movlw	0
  9462  1718  0480               	iorwf	indf,f
  9463                           	line	73
  9464  1719  3023               	movlw	low(__div_to_l_@f2)
  9465  171A  0084               	movwf	fsr0
  9466  171B  30FF               	movlw	0FFh
  9467  171C  0580               	andwf	indf,f
  9468  171D  0A84               	incf	fsr0,f
  9469  171E  30FF               	movlw	0FFh
  9470  171F  0580               	andwf	indf,f
  9471  1720  0A84               	incf	fsr0,f
  9472  1721  30FF               	movlw	0FFh
  9473  1722  0580               	andwf	indf,f
  9474  1723  0A84               	incf	fsr0,f
  9475  1724  3000               	movlw	0
  9476  1725  0580               	andwf	indf,f
  9477                           	line	74
  9478                           	
  9479  1726                     l5636:	
  9480  1726  3000               	movlw	0
  9481  1727  00B1               	movwf	(__div_to_l_@quot+3)
  9482  1728  3000               	movlw	0
  9483  1729  00B0               	movwf	(__div_to_l_@quot+2)
  9484  172A  3000               	movlw	0
  9485  172B  00AF               	movwf	(__div_to_l_@quot+1)
  9486  172C  3000               	movlw	0
  9487  172D  00AE               	movwf	(__div_to_l_@quot)
  9488                           
  9489                           	line	75
  9490                           	
  9491  172E                     l5638:	
  9492  172E  307F               	movlw	low(07Fh)
  9493  172F  02B3               	subwf	(__div_to_l_@exp1),f
  9494                           	line	76
  9495                           	
  9496  1730                     l5640:	
  9497  1730  30A0               	movlw	(0A0h)
  9498  1731  0732               	addwf	(__div_to_l_@cntr),w
  9499  1732  00A6               	movwf	(??__div_to_l_+0)+0
  9500  1733  0826               	movf	0+(??__div_to_l_+0)+0,w
  9501  1734  02B3               	subwf	(__div_to_l_@exp1),f
  9502                           	line	77
  9503                           	
  9504  1735                     l5642:	
  9505  1735  3020               	movlw	(020h)
  9506  1736  00A6               	movwf	(??__div_to_l_+0)+0
  9507  1737  0826               	movf	(??__div_to_l_+0)+0,w
  9508  1738  00B2               	movwf	(__div_to_l_@cntr)
  9509  1739  2F3A               	goto	l5644
  9510                           	line	78
  9511                           	
  9512  173A                     l2521:	
  9513                           	line	79
  9514                           	
  9515  173A                     l5644:	
  9516  173A  3001               	movlw	01h
  9517  173B  00A6               	movwf	(??__div_to_l_+0)+0
  9518  173C                     u3855:
  9519  173C  1003               	clrc
  9520  173D  0DAE               	rlf	(__div_to_l_@quot),f
  9521  173E  0DAF               	rlf	(__div_to_l_@quot+1),f
  9522  173F  0DB0               	rlf	(__div_to_l_@quot+2),f
  9523  1740  0DB1               	rlf	(__div_to_l_@quot+3),f
  9524  1741  0BA6               	decfsz	(??__div_to_l_+0)+0
  9525  1742  2F3C               	goto	u3855
  9526                           	line	80
  9527                           	
  9528  1743                     l5646:	
  9529  1743  3023               	movlw	low(__div_to_l_@f2)
  9530  1744  0084               	movwf	fsr0
  9531  1745  0800               	movf	indf,w
  9532  1746  00A6               	movwf	(??__div_to_l_+0)+0+0
  9533  1747  0A84               	incf	fsr0,f
  9534  1748  0800               	movf	indf,w
  9535  1749  00A7               	movwf	(??__div_to_l_+0)+0+1
  9536  174A  0A84               	incf	fsr0,f
  9537  174B  0800               	movf	indf,w
  9538  174C  00A8               	movwf	(??__div_to_l_+0)+0+2
  9539  174D  0A84               	incf	fsr0,f
  9540  174E  0800               	movf	indf,w
  9541  174F  00A9               	movwf	(??__div_to_l_+0)+0+3
  9542  1750  3020               	movlw	low(__div_to_l_@f1)
  9543  1751  0084               	movwf	fsr0
  9544  1752  0800               	movf	indf,w
  9545  1753  00AA               	movwf	(??__div_to_l_+4)+0+0
  9546  1754  0A84               	incf	fsr0,f
  9547  1755  0800               	movf	indf,w
  9548  1756  00AB               	movwf	(??__div_to_l_+4)+0+1
  9549  1757  0A84               	incf	fsr0,f
  9550  1758  0800               	movf	indf,w
  9551  1759  00AC               	movwf	(??__div_to_l_+4)+0+2
  9552  175A  0A84               	incf	fsr0,f
  9553  175B  0800               	movf	indf,w
  9554  175C  00AD               	movwf	(??__div_to_l_+4)+0+3
  9555  175D  0829               	movf	3+(??__div_to_l_+0)+0,w
  9556  175E  022D               	subwf	3+(??__div_to_l_+4)+0,w
  9557  175F  1D03               	skipz
  9558  1760  2F6B               	goto	u3865
  9559  1761  0828               	movf	2+(??__div_to_l_+0)+0,w
  9560  1762  022C               	subwf	2+(??__div_to_l_+4)+0,w
  9561  1763  1D03               	skipz
  9562  1764  2F6B               	goto	u3865
  9563  1765  0827               	movf	1+(??__div_to_l_+0)+0,w
  9564  1766  022B               	subwf	1+(??__div_to_l_+4)+0,w
  9565  1767  1D03               	skipz
  9566  1768  2F6B               	goto	u3865
  9567  1769  0826               	movf	0+(??__div_to_l_+0)+0,w
  9568  176A  022A               	subwf	0+(??__div_to_l_+4)+0,w
  9569  176B                     u3865:
  9570  176B  1C03               	skipc
  9571  176C  2F6E               	goto	u3861
  9572  176D  2F6F               	goto	u3860
  9573  176E                     u3861:
  9574  176E  2F92               	goto	l2522
  9575  176F                     u3860:
  9576                           	line	81
  9577                           	
  9578  176F                     l5648:	
  9579  176F  3023               	movlw	low(__div_to_l_@f2)
  9580  1770  0084               	movwf	fsr0
  9581  1771  0800               	movf	indf,w
  9582  1772  00A6               	movwf	(??__div_to_l_+0)+0+0
  9583  1773  0A84               	incf	fsr0,f
  9584  1774  0800               	movf	indf,w
  9585  1775  00A7               	movwf	(??__div_to_l_+0)+0+1
  9586  1776  0A84               	incf	fsr0,f
  9587  1777  0800               	movf	indf,w
  9588  1778  00A8               	movwf	(??__div_to_l_+0)+0+2
  9589  1779  0A84               	incf	fsr0,f
  9590  177A  0800               	movf	indf,w
  9591  177B  00A9               	movwf	(??__div_to_l_+0)+0+3
  9592  177C  3020               	movlw	low(__div_to_l_@f1)
  9593  177D  0084               	movwf	fsr0
  9594  177E  0826               	movf	0+(??__div_to_l_+0)+0,w
  9595  177F  0280               	subwf	indf,f
  9596  1780  0A84               	incf	fsr0
  9597  1781  0827               	movf	1+(??__div_to_l_+0)+0,w
  9598  1782  1C03               	skipc
  9599  1783  0F27               	incfsz	1+(??__div_to_l_+0)+0,w
  9600  1784  0280               	subwf	indf,f
  9601  1785  0A84               	incf	fsr0
  9602  1786  0828               	movf	2+(??__div_to_l_+0)+0,w
  9603  1787  1C03               	skipc
  9604  1788  0F28               	incfsz	2+(??__div_to_l_+0)+0,w
  9605  1789  0280               	subwf	indf,f
  9606  178A  0A84               	incf	fsr0
  9607  178B  0829               	movf	3+(??__div_to_l_+0)+0,w
  9608  178C  1C03               	skipc
  9609  178D  0A29               	incf	3+(??__div_to_l_+0)+0,w
  9610  178E  0280               	subwf	indf,f
  9611  178F  3003               	movlw	3
  9612  1790  0284               	subwf	fsr0
  9613                           	line	82
  9614                           	
  9615  1791                     l5650:	
  9616  1791  142E               	bsf	(__div_to_l_@quot)+(0/8),(0)&7
  9617                           	line	83
  9618                           	
  9619  1792                     l2522:	
  9620                           	line	84
  9621  1792  3020               	movlw	low(__div_to_l_@f1)
  9622  1793  0084               	movwf	fsr0
  9623  1794  3001               	movlw	01h
  9624  1795                     u3875:
  9625  1795  1003               	clrc
  9626  1796  0D80               	rlf	indf,f
  9627  1797  0A84               	incf	fsr0,f
  9628  1798  0D80               	rlf	indf,f
  9629  1799  0A84               	incf	fsr0,f
  9630  179A  0D80               	rlf	indf,f
  9631  179B  0A84               	incf	fsr0,f
  9632  179C  0D80               	rlf	indf,f
  9633  179D  0384               	decf	fsr0,f
  9634  179E  0384               	decf	fsr0,f
  9635  179F  0384               	decf	fsr0,f
  9636  17A0  3EFF               	addlw	-1
  9637  17A1  1D03               	skipz
  9638  17A2  2F95               	goto	u3875
  9639                           	line	85
  9640                           	
  9641  17A3                     l5652:	
  9642  17A3  3001               	movlw	low(01h)
  9643  17A4  02B2               	subwf	(__div_to_l_@cntr),f
  9644  17A5  1D03               	btfss	status,2
  9645  17A6  2FA8               	goto	u3881
  9646  17A7  2FA9               	goto	u3880
  9647  17A8                     u3881:
  9648  17A8  2F3A               	goto	l5644
  9649  17A9                     u3880:
  9650                           	
  9651  17A9                     l2523:	
  9652                           	line	86
  9653  17A9  1FB3               	btfss	(__div_to_l_@exp1),7
  9654  17AA  2FAC               	goto	u3891
  9655  17AB  2FAD               	goto	u3890
  9656  17AC                     u3891:
  9657  17AC  2FD2               	goto	l5662
  9658  17AD                     u3890:
  9659                           	line	87
  9660                           	
  9661  17AD                     l5654:	
  9662  17AD  0833               	movf	(__div_to_l_@exp1),w
  9663  17AE  3A80               	xorlw	80h
  9664  17AF  3E9F               	addlw	-((-31)^80h)
  9665  17B0  1803               	skipnc
  9666  17B1  2FB3               	goto	u3901
  9667  17B2  2FB4               	goto	u3900
  9668  17B3                     u3901:
  9669  17B3  2FBF               	goto	l5660
  9670  17B4                     u3900:
  9671                           	line	88
  9672                           	
  9673  17B4                     l5656:	
  9674  17B4  3000               	movlw	0
  9675  17B5  00A3               	movwf	(?__div_to_l_+3)
  9676  17B6  3000               	movlw	0
  9677  17B7  00A2               	movwf	(?__div_to_l_+2)
  9678  17B8  3000               	movlw	0
  9679  17B9  00A1               	movwf	(?__div_to_l_+1)
  9680  17BA  3000               	movlw	0
  9681  17BB  00A0               	movwf	(?__div_to_l_)
  9682                           
  9683  17BC  2FFF               	goto	l2519
  9684                           	
  9685  17BD                     l5658:	
  9686  17BD  2FFF               	goto	l2519
  9687                           	
  9688  17BE                     l2525:	
  9689  17BE  2FBF               	goto	l5660
  9690                           	line	89
  9691                           	
  9692  17BF                     l2526:	
  9693                           	line	90
  9694                           	
  9695  17BF                     l5660:	
  9696  17BF  3001               	movlw	01h
  9697  17C0                     u3915:
  9698  17C0  1003               	clrc
  9699  17C1  0CB1               	rrf	(__div_to_l_@quot+3),f
  9700  17C2  0CB0               	rrf	(__div_to_l_@quot+2),f
  9701  17C3  0CAF               	rrf	(__div_to_l_@quot+1),f
  9702  17C4  0CAE               	rrf	(__div_to_l_@quot),f
  9703  17C5  3EFF               	addlw	-1
  9704  17C6  1D03               	skipz
  9705  17C7  2FC0               	goto	u3915
  9706                           
  9707                           	line	91
  9708  17C8  3001               	movlw	(01h)
  9709  17C9  00A6               	movwf	(??__div_to_l_+0)+0
  9710  17CA  0826               	movf	(??__div_to_l_+0)+0,w
  9711  17CB  07B3               	addwf	(__div_to_l_@exp1),f
  9712  17CC  1D03               	btfss	status,2
  9713  17CD  2FCF               	goto	u3921
  9714  17CE  2FD0               	goto	u3920
  9715  17CF                     u3921:
  9716  17CF  2FBF               	goto	l5660
  9717  17D0                     u3920:
  9718  17D0  2FF6               	goto	l5672
  9719                           	
  9720  17D1                     l2527:	
  9721                           	line	92
  9722  17D1  2FF6               	goto	l5672
  9723                           	
  9724  17D2                     l2524:	
  9725                           	line	93
  9726                           	
  9727  17D2                     l5662:	
  9728  17D2  3020               	movlw	(020h)
  9729  17D3  0233               	subwf	(__div_to_l_@exp1),w
  9730  17D4  1C03               	skipc
  9731  17D5  2FD7               	goto	u3931
  9732  17D6  2FD8               	goto	u3930
  9733  17D7                     u3931:
  9734  17D7  2FEF               	goto	l5670
  9735  17D8                     u3930:
  9736                           	line	94
  9737                           	
  9738  17D8                     l5664:	
  9739  17D8  3000               	movlw	0
  9740  17D9  00A3               	movwf	(?__div_to_l_+3)
  9741  17DA  3000               	movlw	0
  9742  17DB  00A2               	movwf	(?__div_to_l_+2)
  9743  17DC  3000               	movlw	0
  9744  17DD  00A1               	movwf	(?__div_to_l_+1)
  9745  17DE  3000               	movlw	0
  9746  17DF  00A0               	movwf	(?__div_to_l_)
  9747                           
  9748  17E0  2FFF               	goto	l2519
  9749                           	
  9750  17E1                     l5666:	
  9751  17E1  2FFF               	goto	l2519
  9752                           	
  9753  17E2                     l2529:	
  9754                           	line	95
  9755  17E2  2FEF               	goto	l5670
  9756                           	
  9757  17E3                     l2531:	
  9758                           	line	96
  9759                           	
  9760  17E3                     l5668:	
  9761  17E3  3001               	movlw	01h
  9762  17E4  00A6               	movwf	(??__div_to_l_+0)+0
  9763  17E5                     u3945:
  9764  17E5  1003               	clrc
  9765  17E6  0DAE               	rlf	(__div_to_l_@quot),f
  9766  17E7  0DAF               	rlf	(__div_to_l_@quot+1),f
  9767  17E8  0DB0               	rlf	(__div_to_l_@quot+2),f
  9768  17E9  0DB1               	rlf	(__div_to_l_@quot+3),f
  9769  17EA  0BA6               	decfsz	(??__div_to_l_+0)+0
  9770  17EB  2FE5               	goto	u3945
  9771                           	line	97
  9772  17EC  3001               	movlw	low(01h)
  9773  17ED  02B3               	subwf	(__div_to_l_@exp1),f
  9774  17EE  2FEF               	goto	l5670
  9775                           	line	98
  9776                           	
  9777  17EF                     l2530:	
  9778                           	line	95
  9779                           	
  9780  17EF                     l5670:	
  9781  17EF  08B3               	movf	(__div_to_l_@exp1),f
  9782  17F0  1D03               	skipz
  9783  17F1  2FF3               	goto	u3951
  9784  17F2  2FF4               	goto	u3950
  9785  17F3                     u3951:
  9786  17F3  2FE3               	goto	l5668
  9787  17F4                     u3950:
  9788  17F4  2FF6               	goto	l5672
  9789                           	
  9790  17F5                     l2532:	
  9791  17F5  2FF6               	goto	l5672
  9792                           	line	99
  9793                           	
  9794  17F6                     l2528:	
  9795                           	line	100
  9796                           	
  9797  17F6                     l5672:	
  9798  17F6  0831               	movf	(__div_to_l_@quot+3),w
  9799  17F7  00A3               	movwf	(?__div_to_l_+3)
  9800  17F8  0830               	movf	(__div_to_l_@quot+2),w
  9801  17F9  00A2               	movwf	(?__div_to_l_+2)
  9802  17FA  082F               	movf	(__div_to_l_@quot+1),w
  9803  17FB  00A1               	movwf	(?__div_to_l_+1)
  9804  17FC  082E               	movf	(__div_to_l_@quot),w
  9805  17FD  00A0               	movwf	(?__div_to_l_)
  9806                           
  9807  17FE  2FFF               	goto	l2519
  9808                           	
  9809  17FF                     l5674:	
  9810                           	line	101
  9811                           	
  9812  17FF                     l2519:	
  9813  17FF  0008               	return
  9814                           	opt stack 0
  9815                           GLOBAL	__end_of__div_to_l_
  9816  1800                     	__end_of__div_to_l_:
  9817 ;; =============== function __div_to_l_ ends ============
  9818                           
  9819                           	signat	__div_to_l_,8316
  9820                           	global	__tdiv_to_l_
  9821                           psect	text780,local,class=CODE,delta=2
  9822                           global __ptext780
  9823  1395                     __ptext780:
  9824                           
  9825 ;; *************** function __tdiv_to_l_ *****************
  9826 ;; Defined at:
  9827 ;;		line 61 in file "C:\Program Files (x86)\HI-TECH Software\PICC\9.83\sources\ftdivl.c"
  9828 ;; Parameters:    Size  Location     Type
  9829 ;;  f1              3    0[BANK0 ] float 
  9830 ;;  f2              3    3[BANK0 ] float 
  9831 ;; Auto vars:     Size  Location     Type
  9832 ;;  quot            4   10[BANK0 ] unsigned long 
  9833 ;;  exp1            1   15[BANK0 ] unsigned char 
  9834 ;;  cntr            1   14[BANK0 ] unsigned char 
  9835 ;; Return value:  Size  Location     Type
  9836 ;;                  4    0[BANK0 ] unsigned long 
  9837 ;; Registers used:
  9838 ;;		wreg, status,2, status,0
  9839 ;; Tracked objects:
  9840 ;;		On entry : 0/0
  9841 ;;		On exit  : 0/0
  9842 ;;		Unchanged: 0/0
  9843 ;; Data sizes:     COMMON   BANK0   BANK1   BANK3   BANK2
  9844 ;;      Params:         0       6       0       0       0
  9845 ;;      Locals:         0       6       0       0       0
  9846 ;;      Temps:          0       4       0       0       0
  9847 ;;      Totals:         0      16       0       0       0
  9848 ;;Total ram usage:       16 bytes
  9849 ;; Hardware stack levels used:    1
  9850 ;; Hardware stack levels required when called:    1
  9851 ;; This function calls:
  9852 ;;		Nothing
  9853 ;; This function is called by:
  9854 ;;		_printf
  9855 ;; This function uses a non-reentrant model
  9856 ;;
  9857                           psect	text780
  9858                           	file	"C:\Program Files (x86)\HI-TECH Software\PICC\9.83\sources\ftdivl.c"
  9859                           	line	61
  9860                           	global	__size_of__tdiv_to_l_
  9861  00E2                     	__size_of__tdiv_to_l_	equ	__end_of__tdiv_to_l_-__tdiv_to_l_
  9862                           	
  9863  1395                     __tdiv_to_l_:	
  9864                           	opt	stack 5
  9865                           ; Regs used in __tdiv_to_l_: [wreg+status,2+status,0]
  9866                           	line	66
  9867                           	
  9868  1395                     l5568:	
  9869  1395  1283               	bcf	status, 5	;RP0=0, select bank0
  9870  1396  1303               	bcf	status, 6	;RP1=0, select bank0
  9871  1397  0820               	movf	(__tdiv_to_l_@f1),w
  9872  1398  00A6               	movwf	((??__tdiv_to_l_+0)+0)
  9873  1399  0821               	movf	(__tdiv_to_l_@f1+1),w
  9874  139A  00A7               	movwf	((??__tdiv_to_l_+0)+0+1)
  9875  139B  0822               	movf	(__tdiv_to_l_@f1+2),w
  9876  139C  00A8               	movwf	((??__tdiv_to_l_+0)+0+2)
  9877  139D  1003               	clrc
  9878  139E  0D27               	rlf	(??__tdiv_to_l_+0)+1,w
  9879  139F  0D28               	rlf	(??__tdiv_to_l_+0)+2,w
  9880  13A0  00A9               	movwf	(??__tdiv_to_l_+3)+0
  9881  13A1  0829               	movf	(??__tdiv_to_l_+3)+0,w
  9882  13A2  00AF               	movwf	(__tdiv_to_l_@exp1)
  9883  13A3  08AF               	movf	((__tdiv_to_l_@exp1)),f
  9884  13A4  1D03               	skipz
  9885  13A5  2BA7               	goto	u3701
  9886  13A6  2BA8               	goto	u3700
  9887  13A7                     u3701:
  9888  13A7  2BB2               	goto	l5574
  9889  13A8                     u3700:
  9890                           	line	67
  9891                           	
  9892  13A8                     l5570:	
  9893  13A8  3000               	movlw	0
  9894  13A9  00A3               	movwf	(?__tdiv_to_l_+3)
  9895  13AA  3000               	movlw	0
  9896  13AB  00A2               	movwf	(?__tdiv_to_l_+2)
  9897  13AC  3000               	movlw	0
  9898  13AD  00A1               	movwf	(?__tdiv_to_l_+1)
  9899  13AE  3000               	movlw	0
  9900  13AF  00A0               	movwf	(?__tdiv_to_l_)
  9901                           
  9902  13B0  2C76               	goto	l2476
  9903                           	
  9904  13B1                     l5572:	
  9905  13B1  2C76               	goto	l2476
  9906                           	
  9907  13B2                     l2475:	
  9908                           	line	68
  9909                           	
  9910  13B2                     l5574:	
  9911  13B2  0823               	movf	(__tdiv_to_l_@f2),w
  9912  13B3  00A6               	movwf	((??__tdiv_to_l_+0)+0)
  9913  13B4  0824               	movf	(__tdiv_to_l_@f2+1),w
  9914  13B5  00A7               	movwf	((??__tdiv_to_l_+0)+0+1)
  9915  13B6  0825               	movf	(__tdiv_to_l_@f2+2),w
  9916  13B7  00A8               	movwf	((??__tdiv_to_l_+0)+0+2)
  9917  13B8  1003               	clrc
  9918  13B9  0D27               	rlf	(??__tdiv_to_l_+0)+1,w
  9919  13BA  0D28               	rlf	(??__tdiv_to_l_+0)+2,w
  9920  13BB  00A9               	movwf	(??__tdiv_to_l_+3)+0
  9921  13BC  0829               	movf	(??__tdiv_to_l_+3)+0,w
  9922  13BD  00AE               	movwf	(__tdiv_to_l_@cntr)
  9923  13BE  08AE               	movf	((__tdiv_to_l_@cntr)),f
  9924  13BF  1D03               	skipz
  9925  13C0  2BC2               	goto	u3711
  9926  13C1  2BC3               	goto	u3710
  9927  13C2                     u3711:
  9928  13C2  2BCD               	goto	l2477
  9929  13C3                     u3710:
  9930                           	line	69
  9931                           	
  9932  13C3                     l5576:	
  9933  13C3  3000               	movlw	0
  9934  13C4  00A3               	movwf	(?__tdiv_to_l_+3)
  9935  13C5  3000               	movlw	0
  9936  13C6  00A2               	movwf	(?__tdiv_to_l_+2)
  9937  13C7  3000               	movlw	0
  9938  13C8  00A1               	movwf	(?__tdiv_to_l_+1)
  9939  13C9  3000               	movlw	0
  9940  13CA  00A0               	movwf	(?__tdiv_to_l_)
  9941                           
  9942  13CB  2C76               	goto	l2476
  9943                           	
  9944  13CC                     l5578:	
  9945  13CC  2C76               	goto	l2476
  9946                           	
  9947  13CD                     l2477:	
  9948                           	line	70
  9949  13CD  17A1               	bsf	(__tdiv_to_l_@f1)+(15/8),(15)&7
  9950                           	line	71
  9951                           	
  9952  13CE                     l5580:	
  9953  13CE  30FF               	movlw	0FFh
  9954  13CF  05A0               	andwf	(__tdiv_to_l_@f1),f
  9955  13D0  30FF               	movlw	0FFh
  9956  13D1  05A1               	andwf	(__tdiv_to_l_@f1+1),f
  9957  13D2  3000               	movlw	0
  9958  13D3  05A2               	andwf	(__tdiv_to_l_@f1+2),f
  9959                           	line	72
  9960                           	
  9961  13D4                     l5582:	
  9962  13D4  17A4               	bsf	(__tdiv_to_l_@f2)+(15/8),(15)&7
  9963                           	line	73
  9964  13D5  30FF               	movlw	0FFh
  9965  13D6  05A3               	andwf	(__tdiv_to_l_@f2),f
  9966  13D7  30FF               	movlw	0FFh
  9967  13D8  05A4               	andwf	(__tdiv_to_l_@f2+1),f
  9968  13D9  3000               	movlw	0
  9969  13DA  05A5               	andwf	(__tdiv_to_l_@f2+2),f
  9970                           	line	74
  9971  13DB  3000               	movlw	0
  9972  13DC  00AD               	movwf	(__tdiv_to_l_@quot+3)
  9973  13DD  3000               	movlw	0
  9974  13DE  00AC               	movwf	(__tdiv_to_l_@quot+2)
  9975  13DF  3000               	movlw	0
  9976  13E0  00AB               	movwf	(__tdiv_to_l_@quot+1)
  9977  13E1  3000               	movlw	0
  9978  13E2  00AA               	movwf	(__tdiv_to_l_@quot)
  9979                           
  9980                           	line	75
  9981                           	
  9982  13E3                     l5584:	
  9983  13E3  307F               	movlw	low(07Fh)
  9984  13E4  02AF               	subwf	(__tdiv_to_l_@exp1),f
  9985                           	line	76
  9986                           	
  9987  13E5                     l5586:	
  9988  13E5  3098               	movlw	(098h)
  9989  13E6  072E               	addwf	(__tdiv_to_l_@cntr),w
  9990  13E7  00A6               	movwf	(??__tdiv_to_l_+0)+0
  9991  13E8  0826               	movf	0+(??__tdiv_to_l_+0)+0,w
  9992  13E9  02AF               	subwf	(__tdiv_to_l_@exp1),f
  9993                           	line	77
  9994  13EA  3018               	movlw	(018h)
  9995  13EB  00A6               	movwf	(??__tdiv_to_l_+0)+0
  9996  13EC  0826               	movf	(??__tdiv_to_l_+0)+0,w
  9997  13ED  00AE               	movwf	(__tdiv_to_l_@cntr)
  9998  13EE  2BEF               	goto	l5588
  9999                           	line	78
 10000                           	
 10001  13EF                     l2478:	
 10002                           	line	79
 10003                           	
 10004  13EF                     l5588:	
 10005  13EF  3001               	movlw	01h
 10006  13F0  00A6               	movwf	(??__tdiv_to_l_+0)+0
 10007  13F1                     u3725:
 10008  13F1  1003               	clrc
 10009  13F2  0DAA               	rlf	(__tdiv_to_l_@quot),f
 10010  13F3  0DAB               	rlf	(__tdiv_to_l_@quot+1),f
 10011  13F4  0DAC               	rlf	(__tdiv_to_l_@quot+2),f
 10012  13F5  0DAD               	rlf	(__tdiv_to_l_@quot+3),f
 10013  13F6  0BA6               	decfsz	(??__tdiv_to_l_+0)+0
 10014  13F7  2BF1               	goto	u3725
 10015                           	line	80
 10016                           	
 10017  13F8                     l5590:	
 10018  13F8  0825               	movf	(__tdiv_to_l_@f2+2),w
 10019  13F9  0222               	subwf	(__tdiv_to_l_@f1+2),w
 10020  13FA  1D03               	skipz
 10021  13FB  2C02               	goto	u3735
 10022  13FC  0824               	movf	(__tdiv_to_l_@f2+1),w
 10023  13FD  0221               	subwf	(__tdiv_to_l_@f1+1),w
 10024  13FE  1D03               	skipz
 10025  13FF  2C02               	goto	u3735
 10026  1400  0823               	movf	(__tdiv_to_l_@f2),w
 10027  1401  0220               	subwf	(__tdiv_to_l_@f1),w
 10028  1402                     u3735:
 10029  1402  1C03               	skipc
 10030  1403  2C05               	goto	u3731
 10031  1404  2C06               	goto	u3730
 10032  1405                     u3731:
 10033  1405  2C12               	goto	l5596
 10034  1406                     u3730:
 10035                           	line	81
 10036                           	
 10037  1406                     l5592:	
 10038  1406  0823               	movf	(__tdiv_to_l_@f2),w
 10039  1407  02A0               	subwf	(__tdiv_to_l_@f1),f
 10040  1408  0824               	movf	(__tdiv_to_l_@f2+1),w
 10041  1409  1C03               	skipc
 10042  140A  0F24               	incfsz	(__tdiv_to_l_@f2+1),w
 10043  140B  02A1               	subwf	(__tdiv_to_l_@f1+1),f
 10044  140C  0825               	movf	(__tdiv_to_l_@f2+2),w
 10045  140D  1C03               	skipc
 10046  140E  0A25               	incf	(__tdiv_to_l_@f2+2),w
 10047  140F  02A2               	subwf	(__tdiv_to_l_@f1+2),f
 10048                           	line	82
 10049                           	
 10050  1410                     l5594:	
 10051  1410  142A               	bsf	(__tdiv_to_l_@quot)+(0/8),(0)&7
 10052  1411  2C12               	goto	l5596
 10053                           	line	83
 10054                           	
 10055  1412                     l2479:	
 10056                           	line	84
 10057                           	
 10058  1412                     l5596:	
 10059  1412  3001               	movlw	01h
 10060  1413                     u3745:
 10061  1413  1003               	clrc
 10062  1414  0DA0               	rlf	(__tdiv_to_l_@f1),f
 10063  1415  0DA1               	rlf	(__tdiv_to_l_@f1+1),f
 10064  1416  0DA2               	rlf	(__tdiv_to_l_@f1+2),f
 10065  1417  3EFF               	addlw	-1
 10066  1418  1D03               	skipz
 10067  1419  2C13               	goto	u3745
 10068                           	line	85
 10069                           	
 10070  141A                     l5598:	
 10071  141A  3001               	movlw	low(01h)
 10072  141B  02AE               	subwf	(__tdiv_to_l_@cntr),f
 10073  141C  1D03               	btfss	status,2
 10074  141D  2C1F               	goto	u3751
 10075  141E  2C20               	goto	u3750
 10076  141F                     u3751:
 10077  141F  2BEF               	goto	l5588
 10078  1420                     u3750:
 10079                           	
 10080  1420                     l2480:	
 10081                           	line	86
 10082  1420  1FAF               	btfss	(__tdiv_to_l_@exp1),7
 10083  1421  2C23               	goto	u3761
 10084  1422  2C24               	goto	u3760
 10085  1423                     u3761:
 10086  1423  2C49               	goto	l5608
 10087  1424                     u3760:
 10088                           	line	87
 10089                           	
 10090  1424                     l5600:	
 10091  1424  082F               	movf	(__tdiv_to_l_@exp1),w
 10092  1425  3A80               	xorlw	80h
 10093  1426  3E97               	addlw	-((-23)^80h)
 10094  1427  1803               	skipnc
 10095  1428  2C2A               	goto	u3771
 10096  1429  2C2B               	goto	u3770
 10097  142A                     u3771:
 10098  142A  2C36               	goto	l5606
 10099  142B                     u3770:
 10100                           	line	88
 10101                           	
 10102  142B                     l5602:	
 10103  142B  3000               	movlw	0
 10104  142C  00A3               	movwf	(?__tdiv_to_l_+3)
 10105  142D  3000               	movlw	0
 10106  142E  00A2               	movwf	(?__tdiv_to_l_+2)
 10107  142F  3000               	movlw	0
 10108  1430  00A1               	movwf	(?__tdiv_to_l_+1)
 10109  1431  3000               	movlw	0
 10110  1432  00A0               	movwf	(?__tdiv_to_l_)
 10111                           
 10112  1433  2C76               	goto	l2476
 10113                           	
 10114  1434                     l5604:	
 10115  1434  2C76               	goto	l2476
 10116                           	
 10117  1435                     l2482:	
 10118  1435  2C36               	goto	l5606
 10119                           	line	89
 10120                           	
 10121  1436                     l2483:	
 10122                           	line	90
 10123                           	
 10124  1436                     l5606:	
 10125  1436  3001               	movlw	01h
 10126  1437                     u3785:
 10127  1437  1003               	clrc
 10128  1438  0CAD               	rrf	(__tdiv_to_l_@quot+3),f
 10129  1439  0CAC               	rrf	(__tdiv_to_l_@quot+2),f
 10130  143A  0CAB               	rrf	(__tdiv_to_l_@quot+1),f
 10131  143B  0CAA               	rrf	(__tdiv_to_l_@quot),f
 10132  143C  3EFF               	addlw	-1
 10133  143D  1D03               	skipz
 10134  143E  2C37               	goto	u3785
 10135                           
 10136                           	line	91
 10137  143F  3001               	movlw	(01h)
 10138  1440  00A6               	movwf	(??__tdiv_to_l_+0)+0
 10139  1441  0826               	movf	(??__tdiv_to_l_+0)+0,w
 10140  1442  07AF               	addwf	(__tdiv_to_l_@exp1),f
 10141  1443  1D03               	btfss	status,2
 10142  1444  2C46               	goto	u3791
 10143  1445  2C47               	goto	u3790
 10144  1446                     u3791:
 10145  1446  2C36               	goto	l5606
 10146  1447                     u3790:
 10147  1447  2C6D               	goto	l5618
 10148                           	
 10149  1448                     l2484:	
 10150                           	line	92
 10151  1448  2C6D               	goto	l5618
 10152                           	
 10153  1449                     l2481:	
 10154                           	line	93
 10155                           	
 10156  1449                     l5608:	
 10157  1449  3018               	movlw	(018h)
 10158  144A  022F               	subwf	(__tdiv_to_l_@exp1),w
 10159  144B  1C03               	skipc
 10160  144C  2C4E               	goto	u3801
 10161  144D  2C4F               	goto	u3800
 10162  144E                     u3801:
 10163  144E  2C66               	goto	l5616
 10164  144F                     u3800:
 10165                           	line	94
 10166                           	
 10167  144F                     l5610:	
 10168  144F  3000               	movlw	0
 10169  1450  00A3               	movwf	(?__tdiv_to_l_+3)
 10170  1451  3000               	movlw	0
 10171  1452  00A2               	movwf	(?__tdiv_to_l_+2)
 10172  1453  3000               	movlw	0
 10173  1454  00A1               	movwf	(?__tdiv_to_l_+1)
 10174  1455  3000               	movlw	0
 10175  1456  00A0               	movwf	(?__tdiv_to_l_)
 10176                           
 10177  1457  2C76               	goto	l2476
 10178                           	
 10179  1458                     l5612:	
 10180  1458  2C76               	goto	l2476
 10181                           	
 10182  1459                     l2486:	
 10183                           	line	95
 10184  1459  2C66               	goto	l5616
 10185                           	
 10186  145A                     l2488:	
 10187                           	line	96
 10188                           	
 10189  145A                     l5614:	
 10190  145A  3001               	movlw	01h
 10191  145B  00A6               	movwf	(??__tdiv_to_l_+0)+0
 10192  145C                     u3815:
 10193  145C  1003               	clrc
 10194  145D  0DAA               	rlf	(__tdiv_to_l_@quot),f
 10195  145E  0DAB               	rlf	(__tdiv_to_l_@quot+1),f
 10196  145F  0DAC               	rlf	(__tdiv_to_l_@quot+2),f
 10197  1460  0DAD               	rlf	(__tdiv_to_l_@quot+3),f
 10198  1461  0BA6               	decfsz	(??__tdiv_to_l_+0)+0
 10199  1462  2C5C               	goto	u3815
 10200                           	line	97
 10201  1463  3001               	movlw	low(01h)
 10202  1464  02AF               	subwf	(__tdiv_to_l_@exp1),f
 10203  1465  2C66               	goto	l5616
 10204                           	line	98
 10205                           	
 10206  1466                     l2487:	
 10207                           	line	95
 10208                           	
 10209  1466                     l5616:	
 10210  1466  08AF               	movf	(__tdiv_to_l_@exp1),f
 10211  1467  1D03               	skipz
 10212  1468  2C6A               	goto	u3821
 10213  1469  2C6B               	goto	u3820
 10214  146A                     u3821:
 10215  146A  2C5A               	goto	l5614
 10216  146B                     u3820:
 10217  146B  2C6D               	goto	l5618
 10218                           	
 10219  146C                     l2489:	
 10220  146C  2C6D               	goto	l5618
 10221                           	line	99
 10222                           	
 10223  146D                     l2485:	
 10224                           	line	100
 10225                           	
 10226  146D                     l5618:	
 10227  146D  082D               	movf	(__tdiv_to_l_@quot+3),w
 10228  146E  00A3               	movwf	(?__tdiv_to_l_+3)
 10229  146F  082C               	movf	(__tdiv_to_l_@quot+2),w
 10230  1470  00A2               	movwf	(?__tdiv_to_l_+2)
 10231  1471  082B               	movf	(__tdiv_to_l_@quot+1),w
 10232  1472  00A1               	movwf	(?__tdiv_to_l_+1)
 10233  1473  082A               	movf	(__tdiv_to_l_@quot),w
 10234  1474  00A0               	movwf	(?__tdiv_to_l_)
 10235                           
 10236  1475  2C76               	goto	l2476
 10237                           	
 10238  1476                     l5620:	
 10239                           	line	101
 10240                           	
 10241  1476                     l2476:	
 10242  1476  0008               	return
 10243                           	opt stack 0
 10244                           GLOBAL	__end_of__tdiv_to_l_
 10245  1477                     	__end_of__tdiv_to_l_:
 10246 ;; =============== function __tdiv_to_l_ ends ============
 10247                           
 10248                           	signat	__tdiv_to_l_,8316
 10249                           	global	_putch
 10250                           psect	text781,local,class=CODE,delta=2
 10251                           global __ptext781
 10252  1EB2                     __ptext781:
 10253                           
 10254 ;; *************** function _putch *****************
 10255 ;; Defined at:
 10256 ;;		line 8 in file "C:\Users\Felipe\Desktop\Cdigos\Microcontroladores\Projeto Estufa\PROB03 PIC 16F877A\P3\usart.c"
 10257 ;; Parameters:    Size  Location     Type
 10258 ;;  byte            1    wreg     unsigned char 
 10259 ;; Auto vars:     Size  Location     Type
 10260 ;;  byte            1    0[BANK0 ] unsigned char 
 10261 ;; Return value:  Size  Location     Type
 10262 ;;		None               void
 10263 ;; Registers used:
 10264 ;;		wreg
 10265 ;; Tracked objects:
 10266 ;;		On entry : 0/0
 10267 ;;		On exit  : 0/0
 10268 ;;		Unchanged: 0/0
 10269 ;; Data sizes:     COMMON   BANK0   BANK1   BANK3   BANK2
 10270 ;;      Params:         0       0       0       0       0
 10271 ;;      Locals:         0       1       0       0       0
 10272 ;;      Temps:          0       0       0       0       0
 10273 ;;      Totals:         0       1       0       0       0
 10274 ;;Total ram usage:        1 bytes
 10275 ;; Hardware stack levels used:    1
 10276 ;; Hardware stack levels required when called:    1
 10277 ;; This function calls:
 10278 ;;		Nothing
 10279 ;; This function is called by:
 10280 ;;		_printf
 10281 ;;		_getche
 10282 ;; This function uses a non-reentrant model
 10283 ;;
 10284                           psect	text781
 10285                           	file	"C:\Users\Felipe\Desktop\Cdigos\Microcontroladores\Projeto Estufa\PROB03 PIC 16F8
                                 77A\P3\usart.c"
 10286                           	line	8
 10287                           	global	__size_of_putch
 10288  000C                     	__size_of_putch	equ	__end_of_putch-_putch
 10289                           	
 10290  1EB2                     _putch:	
 10291                           	opt	stack 5
 10292                           ; Regs used in _putch: [wreg]
 10293                           ;putch@byte stored from wreg
 10294  1EB2  1283               	bcf	status, 5	;RP0=0, select bank0
 10295  1EB3  1303               	bcf	status, 6	;RP1=0, select bank0
 10296  1EB4  00A0               	movwf	(putch@byte)
 10297                           	line	10
 10298                           	
 10299  1EB5                     l6666:	
 10300                           ;usart.c: 10: while(!TXIF)
 10301  1EB5  2EB6               	goto	l1450
 10302                           	
 10303  1EB6                     l1451:	
 10304                           	line	11
 10305                           ;usart.c: 11: continue;
 10306                           	
 10307  1EB6                     l1450:	
 10308                           	line	10
 10309  1EB6  1E0C               	btfss	(100/8),(100)&7
 10310  1EB7  2EB9               	goto	u5631
 10311  1EB8  2EBA               	goto	u5630
 10312  1EB9                     u5631:
 10313  1EB9  2EB6               	goto	l1450
 10314  1EBA                     u5630:
 10315  1EBA  2EBB               	goto	l6668
 10316                           	
 10317  1EBB                     l1452:	
 10318                           	line	12
 10319                           	
 10320  1EBB                     l6668:	
 10321                           ;usart.c: 12: TXREG = byte;
 10322  1EBB  0820               	movf	(putch@byte),w
 10323  1EBC  0099               	movwf	(25)	;volatile
 10324                           	line	13
 10325                           	
 10326  1EBD                     l1453:	
 10327  1EBD  0008               	return
 10328                           	opt stack 0
 10329                           GLOBAL	__end_of_putch
 10330  1EBE                     	__end_of_putch:
 10331 ;; =============== function _putch ends ============
 10332                           
 10333                           	signat	_putch,4216
 10334                           	global	_interupt
 10335                           psect	text782,local,class=CODE,delta=2
 10336                           global __ptext782
 10337  0657                     __ptext782:
 10338                           
 10339 ;; *************** function _interupt *****************
 10340 ;; Defined at:
 10341 ;;		line 50 in file "C:\Users\Felipe\Desktop\Cdigos\Microcontroladores\Projeto Estufa\PROB03 PIC 16F877A\P3\proj1.0.c"
 10342 ;; Parameters:    Size  Location     Type
 10343 ;;		None
 10344 ;; Auto vars:     Size  Location     Type
 10345 ;;		None
 10346 ;; Return value:  Size  Location     Type
 10347 ;;		None               void
 10348 ;; Registers used:
 10349 ;;		wreg, status,2, status,0, btemp+1
 10350 ;; Tracked objects:
 10351 ;;		On entry : 0/0
 10352 ;;		On exit  : 0/0
 10353 ;;		Unchanged: 0/0
 10354 ;; Data sizes:     COMMON   BANK0   BANK1   BANK3   BANK2
 10355 ;;      Params:         0       0       0       0       0
 10356 ;;      Locals:         0       0       0       0       0
 10357 ;;      Temps:          7       0       0       0       0
 10358 ;;      Totals:         7       0       0       0       0
 10359 ;;Total ram usage:        7 bytes
 10360 ;; Hardware stack levels used:    1
 10361 ;; This function calls:
 10362 ;;		Nothing
 10363 ;; This function is called by:
 10364 ;;		Interrupt level 1
 10365 ;; This function uses a non-reentrant model
 10366 ;;
 10367                           psect	text782
 10368                           	file	"C:\Users\Felipe\Desktop\Cdigos\Microcontroladores\Projeto Estufa\PROB03 PIC 16F8
                                 77A\P3\proj1.0.c"
 10369                           	line	50
 10370                           	global	__size_of_interupt
 10371  0169                     	__size_of_interupt	equ	__end_of_interupt-_interupt
 10372                           	
 10373  0657                     _interupt:	
 10374                           	opt	stack 3
 10375                           ; Regs used in _interupt: [wreg+status,2+status,0+btemp+1]
 10376                           psect	intentry,class=CODE,delta=2
 10377                           global __pintentry
 10378  0004                     __pintentry:
 10379                           global interrupt_function
 10380  0004                     interrupt_function:
 10381                           	global saved_w
 10382  007E                     	saved_w	set	btemp+0
 10383  0004  00FE               	movwf	saved_w
 10384  0005  0E03               	swapf	status,w
 10385  0006  00F3               	movwf	(??_interupt+3)
 10386  0007  0804               	movf	fsr0,w
 10387  0008  00F4               	movwf	(??_interupt+4)
 10388  0009  080A               	movf	pclath,w
 10389  000A  00F5               	movwf	(??_interupt+5)
 10390  000B  1283               	bcf	status, 5	;RP0=0, select bank0
 10391  000C  1303               	bcf	status, 6	;RP1=0, select bank0
 10392  000D  087F               	movf	btemp+1,w
 10393  000E  00F6               	movwf	(??_interupt+6)
 10394  000F  120A  118A  2E57   	ljmp	_interupt
 10395                           psect	text782
 10396                           	line	61
 10397                           	
 10398  0657                     i1l5480:	
 10399                           ;proj1.0.c: 61: if(RBIF){
 10400  0657  1C0B               	btfss	(88/8),(88)&7
 10401  0658  2E5A               	goto	u334_21
 10402  0659  2E5B               	goto	u334_20
 10403  065A                     u334_21:
 10404  065A  2EFF               	goto	i1l5512
 10405  065B                     u334_20:
 10406                           	line	63
 10407                           	
 10408  065B                     i1l5482:	
 10409                           ;proj1.0.c: 63: if(ant4!=RB4)
 10410  065B  1A06               	btfsc	(52/8),(52)&7
 10411  065C  2E5E               	goto	u335_21
 10412  065D  2E60               	goto	u335_20
 10413  065E                     u335_21:
 10414  065E  3001               	movlw	1
 10415  065F  2E61               	goto	u335_22
 10416  0660                     u335_20:
 10417  0660  3000               	movlw	0
 10418  0661                     u335_22:
 10419  0661  00F0               	movwf	(??_interupt+0)+0
 10420  0662  1877               	btfsc	(_ant4/8),(_ant4)&7
 10421  0663  2E65               	goto	u336_21
 10422  0664  2E67               	goto	u336_20
 10423  0665                     u336_21:
 10424  0665  3001               	movlw	1
 10425  0666  2E68               	goto	u336_22
 10426  0667                     u336_20:
 10427  0667  3000               	movlw	0
 10428  0668                     u336_22:
 10429  0668  0670               	xorwf	(??_interupt+0)+0,w
 10430  0669  1903               	skipnz
 10431  066A  2E6C               	goto	u337_21
 10432  066B  2E6D               	goto	u337_20
 10433  066C                     u337_21:
 10434  066C  2E84               	goto	i1l5490
 10435  066D                     u337_20:
 10436                           	line	65
 10437                           	
 10438  066D                     i1l5484:	
 10439                           ;proj1.0.c: 64: {
 10440                           ;proj1.0.c: 65: if(RB4==1)
 10441  066D  1E06               	btfss	(52/8),(52)&7
 10442  066E  2E70               	goto	u338_21
 10443  066F  2E71               	goto	u338_20
 10444  0670                     u338_21:
 10445  0670  2E77               	goto	i1l725
 10446  0671                     u338_20:
 10447                           	line	67
 10448                           	
 10449  0671                     i1l5486:	
 10450                           ;proj1.0.c: 66: {
 10451                           ;proj1.0.c: 67: ant4 = 1;
 10452  0671  1477               	bsf	(_ant4/8),(_ant4)&7
 10453                           	line	68
 10454                           	
 10455  0672                     i1l5488:	
 10456                           ;proj1.0.c: 68: portaFlag = 0;
 10457  0672  1683               	bsf	status, 5	;RP0=1, select bank1
 10458  0673  1303               	bcf	status, 6	;RP1=0, select bank1
 10459  0674  01C6               	clrf	(_portaFlag)^080h
 10460  0675  01C7               	clrf	(_portaFlag+1)^080h
 10461                           	line	69
 10462                           ;proj1.0.c: 69: }else
 10463  0676  2E79               	goto	i1l726
 10464                           	
 10465  0677                     i1l725:	
 10466                           	line	72
 10467                           ;proj1.0.c: 70: {
 10468                           ;proj1.0.c: 72: ant4 = 0;
 10469  0677  1077               	bcf	(_ant4/8),(_ant4)&7
 10470                           	line	73
 10471                           ;proj1.0.c: 73: RB3 = 1;
 10472  0678  1586               	bsf	(51/8),(51)&7
 10473                           	line	74
 10474                           	
 10475  0679                     i1l726:	
 10476                           	line	76
 10477                           ;proj1.0.c: 74: }
 10478                           ;proj1.0.c: 76: RB2 = ant4;
 10479  0679  1877               	btfsc	(_ant4/8),(_ant4)&7
 10480  067A  2E7C               	goto	u339_21
 10481  067B  2E80               	goto	u339_20
 10482                           	
 10483  067C                     u339_21:
 10484  067C  1283               	bcf	status, 5	;RP0=0, select bank0
 10485  067D  1303               	bcf	status, 6	;RP1=0, select bank0
 10486  067E  1506               	bsf	(50/8),(50)&7
 10487  067F  2E83               	goto	u340_24
 10488  0680                     u339_20:
 10489  0680  1283               	bcf	status, 5	;RP0=0, select bank0
 10490  0681  1303               	bcf	status, 6	;RP1=0, select bank0
 10491  0682  1106               	bcf	(50/8),(50)&7
 10492  0683                     u340_24:
 10493  0683  2E84               	goto	i1l5490
 10494                           	line	77
 10495                           	
 10496  0684                     i1l724:	
 10497                           	line	78
 10498                           	
 10499  0684                     i1l5490:	
 10500                           ;proj1.0.c: 77: }
 10501                           ;proj1.0.c: 78: if(ant5!=RB5)
 10502  0684  1A86               	btfsc	(53/8),(53)&7
 10503  0685  2E87               	goto	u341_21
 10504  0686  2E89               	goto	u341_20
 10505  0687                     u341_21:
 10506  0687  3001               	movlw	1
 10507  0688  2E8A               	goto	u341_22
 10508  0689                     u341_20:
 10509  0689  3000               	movlw	0
 10510  068A                     u341_22:
 10511  068A  00F0               	movwf	(??_interupt+0)+0
 10512  068B  18F7               	btfsc	(_ant5/8),(_ant5)&7
 10513  068C  2E8E               	goto	u342_21
 10514  068D  2E90               	goto	u342_20
 10515  068E                     u342_21:
 10516  068E  3001               	movlw	1
 10517  068F  2E91               	goto	u342_22
 10518  0690                     u342_20:
 10519  0690  3000               	movlw	0
 10520  0691                     u342_22:
 10521  0691  0670               	xorwf	(??_interupt+0)+0,w
 10522  0692  1903               	skipnz
 10523  0693  2E95               	goto	u343_21
 10524  0694  2E96               	goto	u343_20
 10525  0695                     u343_21:
 10526  0695  2EA8               	goto	i1l5496
 10527  0696                     u343_20:
 10528                           	line	80
 10529                           	
 10530  0696                     i1l5492:	
 10531                           ;proj1.0.c: 79: {
 10532                           ;proj1.0.c: 80: if(RB5==1)
 10533  0696  1E86               	btfss	(53/8),(53)&7
 10534  0697  2E99               	goto	u344_21
 10535  0698  2E9A               	goto	u344_20
 10536  0699                     u344_21:
 10537  0699  2E9C               	goto	i1l728
 10538  069A                     u344_20:
 10539                           	line	82
 10540                           	
 10541  069A                     i1l5494:	
 10542                           ;proj1.0.c: 81: {
 10543                           ;proj1.0.c: 82: ant5= 1;
 10544  069A  14F7               	bsf	(_ant5/8),(_ant5)&7
 10545                           	line	83
 10546                           ;proj1.0.c: 83: }else
 10547  069B  2E9D               	goto	i1l729
 10548                           	
 10549  069C                     i1l728:	
 10550                           	line	86
 10551                           ;proj1.0.c: 84: {
 10552                           ;proj1.0.c: 86: ant5 = 0;
 10553  069C  10F7               	bcf	(_ant5/8),(_ant5)&7
 10554                           	line	87
 10555                           	
 10556  069D                     i1l729:	
 10557                           	line	88
 10558                           ;proj1.0.c: 87: }
 10559                           ;proj1.0.c: 88: RB3 = ant5;
 10560  069D  18F7               	btfsc	(_ant5/8),(_ant5)&7
 10561  069E  2EA0               	goto	u345_21
 10562  069F  2EA4               	goto	u345_20
 10563                           	
 10564  06A0                     u345_21:
 10565  06A0  1283               	bcf	status, 5	;RP0=0, select bank0
 10566  06A1  1303               	bcf	status, 6	;RP1=0, select bank0
 10567  06A2  1586               	bsf	(51/8),(51)&7
 10568  06A3  2EA7               	goto	u346_24
 10569  06A4                     u345_20:
 10570  06A4  1283               	bcf	status, 5	;RP0=0, select bank0
 10571  06A5  1303               	bcf	status, 6	;RP1=0, select bank0
 10572  06A6  1186               	bcf	(51/8),(51)&7
 10573  06A7                     u346_24:
 10574  06A7  2EA8               	goto	i1l5496
 10575                           	line	89
 10576                           	
 10577  06A8                     i1l727:	
 10578                           	line	91
 10579                           	
 10580  06A8                     i1l5496:	
 10581                           ;proj1.0.c: 89: }
 10582                           ;proj1.0.c: 91: if(ant6!=RB6)
 10583  06A8  1B06               	btfsc	(54/8),(54)&7
 10584  06A9  2EAB               	goto	u347_21
 10585  06AA  2EAD               	goto	u347_20
 10586  06AB                     u347_21:
 10587  06AB  3001               	movlw	1
 10588  06AC  2EAE               	goto	u347_22
 10589  06AD                     u347_20:
 10590  06AD  3000               	movlw	0
 10591  06AE                     u347_22:
 10592  06AE  00F0               	movwf	(??_interupt+0)+0
 10593  06AF  1977               	btfsc	(_ant6/8),(_ant6)&7
 10594  06B0  2EB2               	goto	u348_21
 10595  06B1  2EB4               	goto	u348_20
 10596  06B2                     u348_21:
 10597  06B2  3001               	movlw	1
 10598  06B3  2EB5               	goto	u348_22
 10599  06B4                     u348_20:
 10600  06B4  3000               	movlw	0
 10601  06B5                     u348_22:
 10602  06B5  0670               	xorwf	(??_interupt+0)+0,w
 10603  06B6  1903               	skipnz
 10604  06B7  2EB9               	goto	u349_21
 10605  06B8  2EBA               	goto	u349_20
 10606  06B9                     u349_21:
 10607  06B9  2ECC               	goto	i1l5502
 10608  06BA                     u349_20:
 10609                           	line	93
 10610                           	
 10611  06BA                     i1l5498:	
 10612                           ;proj1.0.c: 92: {
 10613                           ;proj1.0.c: 93: if(RB6==1)
 10614  06BA  1F06               	btfss	(54/8),(54)&7
 10615  06BB  2EBD               	goto	u350_21
 10616  06BC  2EBE               	goto	u350_20
 10617  06BD                     u350_21:
 10618  06BD  2EC0               	goto	i1l731
 10619  06BE                     u350_20:
 10620                           	line	95
 10621                           	
 10622  06BE                     i1l5500:	
 10623                           ;proj1.0.c: 94: {
 10624                           ;proj1.0.c: 95: ant6= 1;
 10625  06BE  1577               	bsf	(_ant6/8),(_ant6)&7
 10626                           	line	96
 10627                           ;proj1.0.c: 96: }else
 10628  06BF  2EC1               	goto	i1l732
 10629                           	
 10630  06C0                     i1l731:	
 10631                           	line	99
 10632                           ;proj1.0.c: 97: {
 10633                           ;proj1.0.c: 99: ant6 = 0;
 10634  06C0  1177               	bcf	(_ant6/8),(_ant6)&7
 10635                           	line	100
 10636                           	
 10637  06C1                     i1l732:	
 10638                           	line	101
 10639                           ;proj1.0.c: 100: }
 10640                           ;proj1.0.c: 101: RA4 = ant6;
 10641  06C1  1977               	btfsc	(_ant6/8),(_ant6)&7
 10642  06C2  2EC4               	goto	u351_21
 10643  06C3  2EC8               	goto	u351_20
 10644                           	
 10645  06C4                     u351_21:
 10646  06C4  1283               	bcf	status, 5	;RP0=0, select bank0
 10647  06C5  1303               	bcf	status, 6	;RP1=0, select bank0
 10648  06C6  1605               	bsf	(44/8),(44)&7
 10649  06C7  2ECB               	goto	u352_24
 10650  06C8                     u351_20:
 10651  06C8  1283               	bcf	status, 5	;RP0=0, select bank0
 10652  06C9  1303               	bcf	status, 6	;RP1=0, select bank0
 10653  06CA  1205               	bcf	(44/8),(44)&7
 10654  06CB                     u352_24:
 10655  06CB  2ECC               	goto	i1l5502
 10656                           	line	102
 10657                           	
 10658  06CC                     i1l730:	
 10659                           	line	103
 10660                           	
 10661  06CC                     i1l5502:	
 10662                           ;proj1.0.c: 102: }
 10663                           ;proj1.0.c: 103: if(ant7!=RB7)
 10664  06CC  1B86               	btfsc	(55/8),(55)&7
 10665  06CD  2ECF               	goto	u353_21
 10666  06CE  2ED1               	goto	u353_20
 10667  06CF                     u353_21:
 10668  06CF  3001               	movlw	1
 10669  06D0  2ED2               	goto	u353_22
 10670  06D1                     u353_20:
 10671  06D1  3000               	movlw	0
 10672  06D2                     u353_22:
 10673  06D2  00F0               	movwf	(??_interupt+0)+0
 10674  06D3  19F7               	btfsc	(_ant7/8),(_ant7)&7
 10675  06D4  2ED6               	goto	u354_21
 10676  06D5  2ED8               	goto	u354_20
 10677  06D6                     u354_21:
 10678  06D6  3001               	movlw	1
 10679  06D7  2ED9               	goto	u354_22
 10680  06D8                     u354_20:
 10681  06D8  3000               	movlw	0
 10682  06D9                     u354_22:
 10683  06D9  0670               	xorwf	(??_interupt+0)+0,w
 10684  06DA  1903               	skipnz
 10685  06DB  2EDD               	goto	u355_21
 10686  06DC  2EDE               	goto	u355_20
 10687  06DD                     u355_21:
 10688  06DD  2EF0               	goto	i1l5508
 10689  06DE                     u355_20:
 10690                           	line	105
 10691                           	
 10692  06DE                     i1l5504:	
 10693                           ;proj1.0.c: 104: {
 10694                           ;proj1.0.c: 105: if(RB7==1)
 10695  06DE  1F86               	btfss	(55/8),(55)&7
 10696  06DF  2EE1               	goto	u356_21
 10697  06E0  2EE2               	goto	u356_20
 10698  06E1                     u356_21:
 10699  06E1  2EE4               	goto	i1l734
 10700  06E2                     u356_20:
 10701                           	line	107
 10702                           	
 10703  06E2                     i1l5506:	
 10704                           ;proj1.0.c: 106: {
 10705                           ;proj1.0.c: 107: ant7= 1;
 10706  06E2  15F7               	bsf	(_ant7/8),(_ant7)&7
 10707                           	line	108
 10708                           ;proj1.0.c: 108: }else
 10709  06E3  2EE5               	goto	i1l735
 10710                           	
 10711  06E4                     i1l734:	
 10712                           	line	111
 10713                           ;proj1.0.c: 109: {
 10714                           ;proj1.0.c: 111: ant7 = 0;
 10715  06E4  11F7               	bcf	(_ant7/8),(_ant7)&7
 10716                           	line	112
 10717                           	
 10718  06E5                     i1l735:	
 10719                           	line	113
 10720                           ;proj1.0.c: 112: }
 10721                           ;proj1.0.c: 113: RA5 = ant7;
 10722  06E5  19F7               	btfsc	(_ant7/8),(_ant7)&7
 10723  06E6  2EE8               	goto	u357_21
 10724  06E7  2EEC               	goto	u357_20
 10725                           	
 10726  06E8                     u357_21:
 10727  06E8  1283               	bcf	status, 5	;RP0=0, select bank0
 10728  06E9  1303               	bcf	status, 6	;RP1=0, select bank0
 10729  06EA  1685               	bsf	(45/8),(45)&7
 10730  06EB  2EEF               	goto	u358_24
 10731  06EC                     u357_20:
 10732  06EC  1283               	bcf	status, 5	;RP0=0, select bank0
 10733  06ED  1303               	bcf	status, 6	;RP1=0, select bank0
 10734  06EE  1285               	bcf	(45/8),(45)&7
 10735  06EF                     u358_24:
 10736  06EF  2EF0               	goto	i1l5508
 10737                           	line	114
 10738                           	
 10739  06F0                     i1l733:	
 10740                           	line	116
 10741                           	
 10742  06F0                     i1l5508:	
 10743                           ;proj1.0.c: 114: }
 10744                           ;proj1.0.c: 116: _delay((unsigned long)((300)*(20000000/4000.0)));
 10745                           	opt asmopt_off
 10746  06F0  3008               movlw  8
 10747  06F1  00F2               movwf	((??_interupt+0)+0+2),f
 10748  06F2  309D               movlw	157
 10749  06F3  00F1               movwf	((??_interupt+0)+0+1),f
 10750  06F4  300B               	movlw	11
 10751  06F5  00F0               movwf	((??_interupt+0)+0),f
 10752  06F6                     u617_27:
 10753  06F6  0BF0               	decfsz	((??_interupt+0)+0),f
 10754  06F7  2EF6               	goto	u617_27
 10755  06F8  0BF1               	decfsz	((??_interupt+0)+0+1),f
 10756  06F9  2EF6               	goto	u617_27
 10757  06FA  0BF2               	decfsz	((??_interupt+0)+0+2),f
 10758  06FB  2EF6               	goto	u617_27
 10759  06FC  2EFD               	nop2
 10760                           opt asmopt_on
 10761                           
 10762                           	line	122
 10763                           	
 10764  06FD                     i1l5510:	
 10765                           ;proj1.0.c: 122: RBIF = 0;
 10766  06FD  100B               	bcf	(88/8),(88)&7
 10767  06FE  2EFF               	goto	i1l5512
 10768                           	line	123
 10769                           	
 10770  06FF                     i1l723:	
 10771                           	line	126
 10772                           	
 10773  06FF                     i1l5512:	
 10774                           ;proj1.0.c: 123: }
 10775                           ;proj1.0.c: 126: if(TMR0IF)
 10776  06FF  1D0B               	btfss	(90/8),(90)&7
 10777  0700  2F02               	goto	u359_21
 10778  0701  2F03               	goto	u359_20
 10779  0702                     u359_21:
 10780  0702  2F5F               	goto	i1l736
 10781  0703                     u359_20:
 10782                           	line	128
 10783                           	
 10784  0703                     i1l5514:	
 10785                           ;proj1.0.c: 127: {
 10786                           ;proj1.0.c: 128: portaCount++;
 10787  0703  3001               	movlw	(01h)
 10788  0704  00F0               	movwf	(??_interupt+0)+0
 10789  0705  0870               	movf	(??_interupt+0)+0,w
 10790  0706  1683               	bsf	status, 5	;RP0=1, select bank1
 10791  0707  1303               	bcf	status, 6	;RP1=0, select bank1
 10792  0708  07C8               	addwf	(_portaCount)^080h,f
 10793                           	line	129
 10794                           ;proj1.0.c: 129: count ++;
 10795  0709  3001               	movlw	(01h)
 10796  070A  00F0               	movwf	(??_interupt+0)+0
 10797  070B  0870               	movf	(??_interupt+0)+0,w
 10798  070C  07FC               	addwf	(_count),f
 10799                           	line	130
 10800                           	
 10801  070D                     i1l5516:	
 10802                           ;proj1.0.c: 130: if(count == 153)
 10803  070D  087C               	movf	(_count),w
 10804  070E  3A99               	xorlw	099h
 10805  070F  1D03               	skipz
 10806  0710  2F12               	goto	u360_21
 10807  0711  2F13               	goto	u360_20
 10808  0712                     u360_21:
 10809  0712  2F2A               	goto	i1l737
 10810  0713                     u360_20:
 10811                           	line	132
 10812                           	
 10813  0713                     i1l5518:	
 10814                           ;proj1.0.c: 131: {
 10815                           ;proj1.0.c: 132: CHS0 = 0;
 10816  0713  1283               	bcf	status, 5	;RP0=0, select bank0
 10817  0714  1303               	bcf	status, 6	;RP1=0, select bank0
 10818  0715  119F               	bcf	(251/8),(251)&7
 10819                           	line	133
 10820                           ;proj1.0.c: 133: CHS1 = 0;
 10821  0716  121F               	bcf	(252/8),(252)&7
 10822                           	line	134
 10823                           ;proj1.0.c: 134: CHS2 = 0;
 10824  0717  129F               	bcf	(253/8),(253)&7
 10825                           	line	135
 10826                           	
 10827  0718                     i1l5520:	
 10828                           ;proj1.0.c: 135: _delay((unsigned long)((1)*(20000000/4000.0)));
 10829                           	opt asmopt_off
 10830  0718  3007               movlw	7
 10831  0719  00F1               movwf	((??_interupt+0)+0+1),f
 10832  071A  307D               	movlw	125
 10833  071B  00F0               movwf	((??_interupt+0)+0),f
 10834  071C                     u618_27:
 10835  071C  0BF0               	decfsz	((??_interupt+0)+0),f
 10836  071D  2F1C               	goto	u618_27
 10837  071E  0BF1               	decfsz	((??_interupt+0)+0+1),f
 10838  071F  2F1C               	goto	u618_27
 10839                           opt asmopt_on
 10840                           
 10841                           	line	136
 10842                           	
 10843  0720                     i1l5522:	
 10844                           ;proj1.0.c: 136: GO_DONE = 1;
 10845  0720  1283               	bcf	status, 5	;RP0=0, select bank0
 10846  0721  1303               	bcf	status, 6	;RP1=0, select bank0
 10847  0722  151F               	bsf	(250/8),(250)&7
 10848                           	line	138
 10849                           ;proj1.0.c: 138: flag = ~flag;
 10850  0723  3010               	movlw	1<<((_flag)&7)
 10851  0724  06F7               	xorwf	((_flag)/8),f
 10852                           	line	140
 10853                           	
 10854  0725                     i1l5524:	
 10855                           ;proj1.0.c: 140: count = 0;
 10856  0725  01FC               	clrf	(_count)
 10857                           	line	141
 10858                           ;proj1.0.c: 141: check=1;
 10859  0726  3001               	movlw	low(01h)
 10860  0727  00FA               	movwf	(_check)
 10861  0728  3000               	movlw	high(01h)
 10862  0729  00FB               	movwf	((_check))+1
 10863                           	line	142
 10864                           	
 10865  072A                     i1l737:	
 10866                           	line	144
 10867                           ;proj1.0.c: 142: }
 10868                           ;proj1.0.c: 144: if(count == 75)
 10869  072A  087C               	movf	(_count),w
 10870  072B  3A4B               	xorlw	04Bh
 10871  072C  1D03               	skipz
 10872  072D  2F2F               	goto	u361_21
 10873  072E  2F30               	goto	u361_20
 10874  072F                     u361_21:
 10875  072F  2F42               	goto	i1l5534
 10876  0730                     u361_20:
 10877                           	line	146
 10878                           	
 10879  0730                     i1l5526:	
 10880                           ;proj1.0.c: 145: {
 10881                           ;proj1.0.c: 146: CHS0 = 1;
 10882  0730  1283               	bcf	status, 5	;RP0=0, select bank0
 10883  0731  159F               	bsf	(251/8),(251)&7
 10884                           	line	147
 10885                           ;proj1.0.c: 147: CHS1 = 0;
 10886  0732  121F               	bcf	(252/8),(252)&7
 10887                           	line	148
 10888                           ;proj1.0.c: 148: CHS2 = 0;
 10889  0733  129F               	bcf	(253/8),(253)&7
 10890                           	line	149
 10891                           	
 10892  0734                     i1l5528:	
 10893                           ;proj1.0.c: 149: _delay((unsigned long)((1)*(20000000/4000.0)));
 10894                           	opt asmopt_off
 10895  0734  3007               movlw	7
 10896  0735  00F1               movwf	((??_interupt+0)+0+1),f
 10897  0736  307D               	movlw	125
 10898  0737  00F0               movwf	((??_interupt+0)+0),f
 10899  0738                     u619_27:
 10900  0738  0BF0               	decfsz	((??_interupt+0)+0),f
 10901  0739  2F38               	goto	u619_27
 10902  073A  0BF1               	decfsz	((??_interupt+0)+0+1),f
 10903  073B  2F38               	goto	u619_27
 10904                           opt asmopt_on
 10905                           
 10906                           	line	150
 10907                           	
 10908  073C                     i1l5530:	
 10909                           ;proj1.0.c: 150: GO_DONE = 1;
 10910  073C  1283               	bcf	status, 5	;RP0=0, select bank0
 10911  073D  1303               	bcf	status, 6	;RP1=0, select bank0
 10912  073E  151F               	bsf	(250/8),(250)&7
 10913                           	line	151
 10914                           	
 10915  073F                     i1l5532:	
 10916                           ;proj1.0.c: 151: check = 0;
 10917  073F  01FA               	clrf	(_check)
 10918  0740  01FB               	clrf	(_check+1)
 10919  0741  2F42               	goto	i1l5534
 10920                           	line	152
 10921                           	
 10922  0742                     i1l738:	
 10923                           	line	154
 10924                           	
 10925  0742                     i1l5534:	
 10926                           ;proj1.0.c: 152: }
 10927                           ;proj1.0.c: 154: if(count == 225)
 10928  0742  087C               	movf	(_count),w
 10929  0743  3AE1               	xorlw	0E1h
 10930  0744  1D03               	skipz
 10931  0745  2F47               	goto	u362_21
 10932  0746  2F48               	goto	u362_20
 10933  0747                     u362_21:
 10934  0747  2F5E               	goto	i1l740
 10935  0748                     u362_20:
 10936                           	line	156
 10937                           	
 10938  0748                     i1l5536:	
 10939                           ;proj1.0.c: 155: {
 10940                           ;proj1.0.c: 156: CHS0 = 0;
 10941  0748  1283               	bcf	status, 5	;RP0=0, select bank0
 10942  0749  119F               	bcf	(251/8),(251)&7
 10943                           	line	157
 10944                           ;proj1.0.c: 157: CHS1 = 1;
 10945  074A  161F               	bsf	(252/8),(252)&7
 10946                           	line	158
 10947                           ;proj1.0.c: 158: CHS2 = 0;
 10948  074B  129F               	bcf	(253/8),(253)&7
 10949                           	line	159
 10950                           	
 10951  074C                     i1l5538:	
 10952                           ;proj1.0.c: 159: _delay((unsigned long)((1)*(20000000/4000.0)));
 10953                           	opt asmopt_off
 10954  074C  3007               movlw	7
 10955  074D  00F1               movwf	((??_interupt+0)+0+1),f
 10956  074E  307D               	movlw	125
 10957  074F  00F0               movwf	((??_interupt+0)+0),f
 10958  0750                     u620_27:
 10959  0750  0BF0               	decfsz	((??_interupt+0)+0),f
 10960  0751  2F50               	goto	u620_27
 10961  0752  0BF1               	decfsz	((??_interupt+0)+0+1),f
 10962  0753  2F50               	goto	u620_27
 10963                           opt asmopt_on
 10964                           
 10965                           	line	160
 10966                           	
 10967  0754                     i1l5540:	
 10968                           ;proj1.0.c: 160: GO_DONE = 1;
 10969  0754  1283               	bcf	status, 5	;RP0=0, select bank0
 10970  0755  1303               	bcf	status, 6	;RP1=0, select bank0
 10971  0756  151F               	bsf	(250/8),(250)&7
 10972                           	line	161
 10973                           ;proj1.0.c: 161: check = 2;
 10974  0757  3002               	movlw	low(02h)
 10975  0758  00FA               	movwf	(_check)
 10976  0759  3000               	movlw	high(02h)
 10977  075A  00FB               	movwf	((_check))+1
 10978  075B  2F5E               	goto	i1l740
 10979                           	line	162
 10980                           	
 10981  075C                     i1l739:	
 10982                           	line	164
 10983                           ;proj1.0.c: 162: }
 10984                           ;proj1.0.c: 164: if(portaCount >= 30000 && portaFlag==1)
 10985  075C  2F5E               	goto	i1l740
 10986                           	line	166
 10987                           	
 10988  075D                     i1l5542:	
 10989                           ;proj1.0.c: 165: {
 10990                           ;proj1.0.c: 166: RB3 = 1;
 10991  075D  1586               	bsf	(51/8),(51)&7
 10992                           	line	167
 10993                           	
 10994  075E                     i1l740:	
 10995                           	line	169
 10996                           ;proj1.0.c: 167: }
 10997                           ;proj1.0.c: 169: TMR0IF = 0;
 10998  075E  110B               	bcf	(90/8),(90)&7
 10999                           	line	170
 11000                           	
 11001  075F                     i1l736:	
 11002                           	line	172
 11003                           ;proj1.0.c: 170: }
 11004                           ;proj1.0.c: 172: if(ADIF)
 11005  075F  1283               	bcf	status, 5	;RP0=0, select bank0
 11006  0760  1303               	bcf	status, 6	;RP1=0, select bank0
 11007  0761  1F0C               	btfss	(102/8),(102)&7
 11008  0762  2F64               	goto	u363_21
 11009  0763  2F65               	goto	u363_20
 11010  0764                     u363_21:
 11011  0764  2FB5               	goto	i1l745
 11012  0765                     u363_20:
 11013                           	line	175
 11014                           	
 11015  0765                     i1l5544:	
 11016                           ;proj1.0.c: 173: {
 11017                           ;proj1.0.c: 175: DATA = (ADRESH <<2) + (ADRESL >>6);
 11018  0765  1683               	bsf	status, 5	;RP0=1, select bank1
 11019  0766  1303               	bcf	status, 6	;RP1=0, select bank1
 11020  0767  081E               	movf	(158)^080h,w	;volatile
 11021  0768  00F0               	movwf	(??_interupt+0)+0
 11022  0769  3006               	movlw	06h
 11023  076A                     u364_25:
 11024  076A  1003               	clrc
 11025  076B  0CF0               	rrf	(??_interupt+0)+0,f
 11026  076C  3EFF               	addlw	-1
 11027  076D  1D03               	skipz
 11028  076E  2F6A               	goto	u364_25
 11029  076F  1283               	bcf	status, 5	;RP0=0, select bank0
 11030  0770  1303               	bcf	status, 6	;RP1=0, select bank0
 11031  0771  081E               	movf	(30),w	;volatile
 11032  0772  00F1               	movwf	(??_interupt+1)+0
 11033  0773  01F2               	clrf	(??_interupt+1)+0+1
 11034  0774  3002               	movlw	02h
 11035  0775  00FF               	movwf	btemp+1
 11036  0776                     u365_25:
 11037  0776  1003               	clrc
 11038  0777  0DF1               	rlf	(??_interupt+1)+0,f
 11039  0778  0DF2               	rlf	(??_interupt+1)+1,f
 11040  0779  0BFF               	decfsz	btemp+1,f
 11041  077A  2F76               	goto	u365_25
 11042  077B  0870               	movf	0+(??_interupt+0)+0,w
 11043  077C  0771               	addwf	0+(??_interupt+1)+0,w
 11044  077D  00F8               	movwf	(_DATA)
 11045  077E  3000               	movlw	0
 11046  077F  1803               	skipnc
 11047  0780  3001               	movlw	1
 11048  0781  0772               	addwf	1+(??_interupt+1)+0,w
 11049  0782  00F9               	movwf	1+(_DATA)
 11050                           	line	177
 11051                           	
 11052  0783                     i1l5546:	
 11053                           ;proj1.0.c: 177: if(check==1){ dataTemp = DATA; }
 11054  0783  3001               	movlw	01h
 11055  0784  067A               	xorwf	(_check),w
 11056  0785  047B               	iorwf	(_check+1),w
 11057  0786  1D03               	skipz
 11058  0787  2F89               	goto	u366_21
 11059  0788  2F8A               	goto	u366_20
 11060  0789                     u366_21:
 11061  0789  2F93               	goto	i1l5550
 11062  078A                     u366_20:
 11063                           	
 11064  078A                     i1l5548:	
 11065  078A  0879               	movf	(_DATA+1),w
 11066  078B  1683               	bsf	status, 5	;RP0=1, select bank1
 11067  078C  1303               	bcf	status, 6	;RP1=0, select bank1
 11068  078D  01CE               	clrf	(_dataTemp+1)^080h
 11069  078E  07CE               	addwf	(_dataTemp+1)^080h
 11070  078F  0878               	movf	(_DATA),w
 11071  0790  01CD               	clrf	(_dataTemp)^080h
 11072  0791  07CD               	addwf	(_dataTemp)^080h
 11073                           
 11074  0792  2F93               	goto	i1l5550
 11075                           	
 11076  0793                     i1l742:	
 11077                           	line	178
 11078                           	
 11079  0793                     i1l5550:	
 11080                           ;proj1.0.c: 178: if(check==0){ dataLuz = DATA; }
 11081  0793  087B               	movf	((_check+1)),w
 11082  0794  047A               	iorwf	((_check)),w
 11083  0795  1D03               	skipz
 11084  0796  2F98               	goto	u367_21
 11085  0797  2F99               	goto	u367_20
 11086  0798                     u367_21:
 11087  0798  2FA2               	goto	i1l5554
 11088  0799                     u367_20:
 11089                           	
 11090  0799                     i1l5552:	
 11091  0799  0879               	movf	(_DATA+1),w
 11092  079A  1683               	bsf	status, 5	;RP0=1, select bank1
 11093  079B  1303               	bcf	status, 6	;RP1=0, select bank1
 11094  079C  01CC               	clrf	(_dataLuz+1)^080h
 11095  079D  07CC               	addwf	(_dataLuz+1)^080h
 11096  079E  0878               	movf	(_DATA),w
 11097  079F  01CB               	clrf	(_dataLuz)^080h
 11098  07A0  07CB               	addwf	(_dataLuz)^080h
 11099                           
 11100  07A1  2FA2               	goto	i1l5554
 11101                           	
 11102  07A2                     i1l743:	
 11103                           	line	179
 11104                           	
 11105  07A2                     i1l5554:	
 11106                           ;proj1.0.c: 179: if(check==2){ dataBat = DATA; }
 11107  07A2  3002               	movlw	02h
 11108  07A3  067A               	xorwf	(_check),w
 11109  07A4  047B               	iorwf	(_check+1),w
 11110  07A5  1D03               	skipz
 11111  07A6  2FA8               	goto	u368_21
 11112  07A7  2FA9               	goto	u368_20
 11113  07A8                     u368_21:
 11114  07A8  2FB2               	goto	i1l5558
 11115  07A9                     u368_20:
 11116                           	
 11117  07A9                     i1l5556:	
 11118  07A9  0879               	movf	(_DATA+1),w
 11119  07AA  1683               	bsf	status, 5	;RP0=1, select bank1
 11120  07AB  1303               	bcf	status, 6	;RP1=0, select bank1
 11121  07AC  01CA               	clrf	(_dataBat+1)^080h
 11122  07AD  07CA               	addwf	(_dataBat+1)^080h
 11123  07AE  0878               	movf	(_DATA),w
 11124  07AF  01C9               	clrf	(_dataBat)^080h
 11125  07B0  07C9               	addwf	(_dataBat)^080h
 11126                           
 11127  07B1  2FB2               	goto	i1l5558
 11128                           	
 11129  07B2                     i1l744:	
 11130                           	line	182
 11131                           	
 11132  07B2                     i1l5558:	
 11133                           ;proj1.0.c: 182: ADIF = 0;
 11134  07B2  1283               	bcf	status, 5	;RP0=0, select bank0
 11135  07B3  130C               	bcf	(102/8),(102)&7
 11136  07B4  2FB5               	goto	i1l745
 11137                           	line	183
 11138                           	
 11139  07B5                     i1l741:	
 11140                           	line	185
 11141                           	
 11142  07B5                     i1l745:	
 11143  07B5  0876               	movf	(??_interupt+6),w
 11144  07B6  00FF               	movwf	btemp+1
 11145  07B7  0875               	movf	(??_interupt+5),w
 11146  07B8  008A               	movwf	pclath
 11147  07B9  0874               	movf	(??_interupt+4),w
 11148  07BA  0084               	movwf	fsr0
 11149  07BB  0E73               	swapf	(??_interupt+3)^0FFFFFF80h,w
 11150  07BC  0083               	movwf	status
 11151  07BD  0EFE               	swapf	saved_w,f
 11152  07BE  0E7E               	swapf	saved_w,w
 11153  07BF  0009               	retfie
 11154                           	opt stack 0
 11155                           GLOBAL	__end_of_interupt
 11156  07C0                     	__end_of_interupt:
 11157 ;; =============== function _interupt ends ============
 11158                           
 11159                           	signat	_interupt,88
 11160                           psect	text783,local,class=CODE,delta=2
 11161                           global __ptext783
 11162  0000                     __ptext783:
 11163                           	global	btemp
 11164  007E                     	btemp set 07Eh
 11165                           
 11166                           	DABS	1,126,2	;btemp
 11167                           	global	wtemp0
 11168  007E                     	wtemp0 set btemp


HI-TECH Software PICC Macro Assembler V9.83 build 10920 
Symbol Table                                                                                   Thu Oct 01 00:25:46 2015

                    pc 0002         ___bmul@product 0032                     _RD 0C60                     _WR 0C61  
         ___awdiv@sign 002D                     fsr 0004    ___wmul@multiplicand 0022           ___ftadd@exp1 005E  
         ___ftadd@exp2 005D           ___ftadd@sign 005C                    l750 0B43                    l751 0BBD  
                  l760 0D0F                    l752 0C71                    l761 0D18                    l753 0C03  
                  l762 0D24                    l754 0C70                    l763 0D25                    l755 0C49  
                  l764 0D26                    l756 0C6F                    l748 0ABB                    l765 0D26  
                  l757 0C6E                    l749 0B3F                    l758 0CE2                    l759 0CE9  
                  _GIE 005F                    _RB0 0030                    _RB1 0031                    _RB2 0032  
                  _RA4 002C                    _RB3 0033                    _RA5 002D                    _RB4 0034  
                  _RB5 0035                    _RB6 0036                    _RB7 0037                    _PS0 0408  
                  _PS1 0409                    _PS2 040A                    _PSA 040B                    _luz 00C3  
                  fsr0 0004                    indf 0000           ___awmod@sign 0026           ___ftdiv@cntr 0036  
         ___ftdiv@sign 003B                   l2300 1626                   l1500 0034                   l2301 163A  
                 l1501 002F                   l2302 1650                   l1502 0656                   l1510 01BB  
                 l2303 1665                   l1511 01E6                   l1503 0030                   l2232 1F13  
                 l2400 1152                   l2304 168E                   l2320 12E8                   l1520 0303  
                 l1512 01E5                   l1504 0046                   l2233 1F1D                   l2401 1169  
                 l2321 1394                   l1513 0230                   l1505 0032                   l1450 1EB6  
                 l2226 1EC2                   l2234 1F32                   l2410 11CF                   l2322 1301  
                 l2330 1492                   l1506 062C                   l1530 04A7                   l1514 0352  
                 l1522 0343                   l1451 1EB6                   l2227 1ECB                   l2235 1F39  
                 l2411 11D9                   l2323 1347                   l2331 1564                   l2315 10FB  
                 l1531 04B7                   l1523 03D0                   l1507 00B2                   l1452 1EBB  
                 l2228 1ED5                   l2404 11D0                   l2324 1369                   l2332 14AB  
                 l1540 0624                   l1532 04A8                   l1524 03DB                   l1516 0277  
                 l1508 01E7                   l1453 1EBD                   l2229 1ED7                   l2341 0830  
                 l2405 118E                   l2325 1378                   l2333 14EB                   l1541 0615  
                 l1533 04C5                   l1525 041E                   l1517 02A1                   l1509 0141  
                 l2350 088C                   l2342 08B8                   l2406 1180                   l2334 1500  
                 l1542 062B                   l1534 04DB                   l1526 0413                   l1518 02AA  
                 l2351 089E                   l2343 087B                   l2407 1193                   l2335 1517  
                 l1543 063F                   l1535 04E1                   l1527 0431                   l2520 16F2  
                 l2600 125E                   l2352 08AF                   l2344 0867                   l2408 1194  
                 l2440 1FA8                   l2280 15B1                   l2336 151C                   l1544 0655  
                 l1536 04F7                   l1528 049A                   l2521 173A                   l2601 12CC  
                 l2345 0868                   l2409 11BF                   l2441 1FB2                   l2337 1531  
                 l1481 09A7                   l1537 0609                   l1529 0432                   l1545 0656  
                 l2530 17EF                   l2522 1792                   l2610 12A9                   l2602 1274  
                 l2346 087A                   l2450 1FFF                   l2442 1FEE                   l2290 15FC  
                 l2282 15B0                   l2338 1548                   l1482 0A6F                   l1490 0E77  
                 l1538 0544                   l2531 17E3                   l2523 17A9                   l2611 12B3  
                 l2603 1267                   l2347 089F                   l2443 1FC8                   l2291 15EF  
                 l2283 15BA                   l1483 0A3B                   l1491 0E76                   l1539 0614  
                 l2532 17F5                   l2524 17D2                   l2612 12CC                   l2604 127B  
                 l2348 088B                   l2380 123D                   l2372 11EA                   l2444 1FBC  
                 l2292 1603                   l2284 15BF                   l2276 159C                   l1484 0A3A  
                 l1492 0F66                   l2525 17BE                   l2605 1292                   l2349 0898  
                 l2381 1248                   l2373 11F8                   l2445 1FCD                   l2285 1604  
                 l2293 163B                   l1493 0FDE                   l2526 17BF                   l2518 16D0  
                 l2606 127C                   l2382 124F                   l2374 123E                   l2390 1F7D  
                 l2446 1FCE                   l2294 163B                   l2286 15D4                   l2278 1594  
                 l2470 07C7                   l1494 0FDD                   l2527 17D1                   l2519 17FF  
                 l2607 1299                   l2375 1210                   l2391 1F8D                   l2447 1FDF  
                 l2295 160B                   l2279 16AA                   l2455 1EF2                   l2471 07DC  
                 l1487 0E99                   l2480 1420                   l2528 17F6                   l2608 12A5  
                 l2376 1204                   l2392 1F97                   l2448 1FED                   l2288 15ED  
                 l6000 15C0                   l2472 07F5                   l1488 0DFF                   l2481 1449  
                 l2529 17E2                   l2609 129A                   l2377 1215                   l2385 1F8E  
                 l2449 1FF8                   l2297 1624                   l2289 15EE                   l1489 0FFF  
                 l1497 0640                   l2482 1435                   l2378 1216                   l2386 1F56  
                 l2298 1625                   l6010 15EF                   l6002 15C6                   l1498 001D  
                 l2483 1436                   l2475 13B2                   l2379 122F                   l2387 1F48  
                 l2395 0811                   l2299 1633                   l1499 002A                   l2484 1448  
                 l2476 1476                   l2388 1F5B                   l2396 0812                   l6020 161B  
                 l6012 15FC                   l6004 15D4                   l6100 14D8                   l2485 146D  
                 l2477 13CD                   l2389 1F5C                   l2469 07D5                   l2486 1459  
                 l2478 13EF                   l6030 1654                   l6022 1626                   l6006 15DE  
                 l6014 1604                   l6110 14EB                   l6102 14D9                   l2487 1466  
                 l2479 1412                   l2399 1128                   l2488 145A                   l6040 168E  
                 l6032 1665                   l6024 1633                   l6016 160B                   l6008 15E4  
                 l6120 1517                   l6112 14EF                   l6104 14DA                   l7000 0BB9  
                 l2489 146C                   l6042 16AA                   l6034 1676                   l6026 163F  
                 l6018 1615                   l6050 12E8                   l6130 1541                   l6122 151C  
                 l6114 1500                   l6106 14E0                   l7010 0C24                   l7002 0BBD  
                 l6036 167A                   l6028 1650                   l6060 130C                   l6052 12F9  
                 l6044 12CD                   l6132 1548                   l6124 1520                   l6116 1508  
                 l6108 14E6                   l6140 07C0                   l7020 0CDB                   l7012 0C45  
                 l7004 0BDE                   l2598 1266                   l6038 168A                   l6070 1347  
                 l6062 131E                   l6054 1300                   l6046 12E0                   l6134 1564  
                 l6126 1531                   l6118 1510                   l6142 07C7                   l7030 0D18  
                 l7022 0CE2                   l7014 0C49                   l7006 0BFF                   l5600 1424  
                 l6080 1371                   l6072 134F                   l6064 1330                   l6056 1301  
                 l6048 12E7                   l6128 1539                   l6136 1ED8                   l6144 07D5  
                 l7032 0D1C                   l7024 0CE9                   l7016 0C6A                   l7008 0C03  
                 l5610 144F                   l5602 142B                   l6082 1378                   l6074 135D  
                 l6066 1334                   l6058 1307                   l6090 1491                   l6138 1EF2  
                 l6146 07DC                   l7034 0D22                   l7026 0D0C                   l7018 0C71  
                 l5620 1476                   l5612 1458                   l5604 1434                   l6084 1394  
                 l6076 1367                   l6068 133B                   l6092 1492                   l6148 07F5  
                 l7028 0D15                   l5614 145A                   l5606 1436                   l5630 16E8  
                 l5622 16AB                   l5710 1267                   l5702 1250                   l6078 1369  
                 l6094 14A3                   l6086 1477                   l5616 1466                   l5608 1449  
                 l5640 1730                   l5632 16F1                   l5624 16C6                   l5720 129A  
                 l5712 1274                   l5704 1256                   l5800 11EA                   l6096 14AA  
                 l6088 148A                   l5618 146D                   l5570 13A8                   l5650 1791  
                 l5642 1735                   l5634 16F2                   l5626 16CF                   l5730 12CB  
                 l5722 12A5                   l5714 127C                   l5706 125E                   l5810 1200  
                 l5802 11EE                   l6098 14AB                   l5580 13CE                   l5572 13B1  
                 l5660 17BF                   l5652 17A3                   l5644 173A                   l5636 1726  
                 l5628 16D0                   l5724 12AD                   l5716 1280                   l5708 1265  
                 l5740 0842                   l5732 0813                   l5820 1227                   l5812 1204  
                 l5804 11F3                   l5476 1166                   l5900 11BF                   l6700 09A5  
                 l5590 13F8                   l5582 13D4                   l5574 13B2                   l5670 17EF  
                 l5654 17AD                   l5662 17D2                   l5646 1743                   l5638 172E  
                 l5726 12B5                   l5718 128A                   l5750 0856                   l5742 0843  
                 l5734 0826                   l5830 1242                   l5822 122D                   l5814 120B  
                 l5806 11F8                   l5478 1168                   l5902 11C8                   l5910 1F9F  
                 l6710 0A39                   l6702 09A6                   _ADIE 0466                   l5592 1406  
                 l5584 13E3                   l5576 13C3                   l5568 1395                   l5664 17D8  
                 l5672 17F6                   l5656 17B4                   l5648 176F                   l5680 1ECB  
                 l5728 12C7                   l5760 0881                   l5752 085D                   l5744 0849  
                 l5736 082F                   l5832 1248                   l5824 122F                   l5816 1210  
                 l5808 11FA                   l5840 1F48                   l5904 11D0                   l5920 1FBC  
                 l5912 1FA8                   l6712 0A3B                   l6704 09A7                   l6720 0D32  
                 l6800 0136                   _ADIF 0066                   _ADFM 04FF                   l5594 1410  
                 l5586 13E5                   l5578 13CC                   l5674 17FF                   l5666 17E1  
                 l5658 17BD                   l5682 1ECD                   l5770 08A3                   l5762 088A  
                 l5754 0866                   l5746 0850                   l5738 0830                   l5834 124F  
                 l5826 1236                   l5818 1216                   l5850 1F86                   l5842 1F56  
                 l5906 11D9                   l5930 1FDF                   l5922 1FC3                   l5914 1FAC  
                 l6714 0A6F                   l6706 09AD                   l6730 0E06                   l6722 0D39  
                 l6810 01B2                   l6802 013A                   l5596 1412                   l5588 13EF  
                 l5668 17E3                   l5684 1ECF                   l5676 1EC1                   l5772 08AF  
                 l5764 088C                   l5756 0868                   l5748 0852                   l5828 123E  
                 l5844 1F5C                   l5852 1F8E                   l5836 1F3A                   l5940 1FFF  
                 l5932 1FE6                   l5924 1FC8                   l5916 1FB2                   l5908 1F98  
                 l6708 0A1F                   l6740 0EA0                   l6732 0E75                   l6724 0DFD  
                 l6716 0D2C                   l6820 0230                   l6812 01BB                   l6804 0141  
                 l6900 0640                   l5598 141A                   l5686 1ED5                   l5678 1EC6  
                 l5774 08B8                   l5766 0898                   l5758 087B                   l5854 1F97  
                 l5846 1F6E                   l5838 1F44                   l5870 112C                   l5926 1FCE  
                 l5918 1FB8                   l5934 1FEE                   l6750 0FDC                   l6742 0F64  
                 l6734 0E77                   l6726 0DFE                   l6718 0D30                   l6830 0298  
                 l6822 023F                   l6814 01DC                   l6806 015A                   l6910 0A7B  
                 l6902 0A70                   l5688 1ED7                   l6680 1F24                   l5768 089F  
                 l5848 1F7D                   l5880 1166                   l5872 1152                   l5864 10FC  
                 l5936 1FF2                   l5928 1FD8                   l6752 0FDE                   l6744 0F65  
                 l6736 0E98                   l6728 0DFF                   l6760 10FB                   l6840 0343  
                 l6832 02A1                   l6824 0248                   l6808 0193                   l6816 01E7  
                 l6920 0A80                   l6912 0A7C                   l6904 0A77                   l6666 1EB5  
                 l6682 1F32                   l6674 1F0E                   l6690 0811                   l5882 1169  
                 l5874 1154                   l5866 1102                   l5890 118E                   l5938 1FF8  
                 l6754 0FFF                   l6746 0F66                   l6738 0E99                   l6850 03D3  
                 l6842 034B                   l6834 02AA                   l6826 0267                   l6818 01F6  
                 l6770 0033                   l6762 0018                   l6930 0A85                   l6922 0A81  
                 l6914 0A7D                   l6906 0A79                   l6668 1EBB                   l6684 1F39  
                 l6676 1F13                   l5796 11DA                   l6692 0812                   l5876 1156  
                 l5868 1128                   l5892 1194                   l5884 116A                   l5980 1589  
                 l6748 0F6D                   l6756 10DD                   l6860 0417                   l6852 03DA  
                 l6836 02C3                   l6844 0352                   l6828 0277                   l6780 0061  
                 l6772 0034                   l6764 001D                   l6940 0A8A                   l6932 0A86  
                 l6924 0A82                   l6916 0A7E                   l6908 0A7A                   l6678 1F17  
                 l5798 11E1                   l6686 0805                   l5878 1164                   l5894 119D  
                 l5886 117C                   l5990 15A6                   l5982 1594                   l5974 1565  
                 l6694 08BC                   l6758 10E1                   l6870 04A8                   l6862 041E  
                 l6854 03DB                   l6846 03CD                   l6838 0303                   l6790 00B6  
                 l6782 0065                   l6774 0046                   l6766 0023                   l6950 0A99  
                 l6942 0A8B                   l6934 0A87                   l6926 0A83                   l6918 0A7F  
                 l6688 080E                   l5896 11AF                   l5888 1180                   l5992 15B1  
                 l5984 159B                   l5976 157F                   l6696 08C2                   l6880 04DB  
                 l6872 04AE                   l6864 042A                   l6856 0412                   l6848 03D0  
                 l6792 00BD                   l6784 0084                   l6776 0052                   l6768 002A  
                 l6960 0AA4                   l6952 0A9C                   l6944 0A8C                   l6936 0A88  
                 l6928 0A84                   l5898 11BD                   l5994 15B5                   l5986 159C  
                 l5978 1583                   l6698 098B                   l6890 0615                   l6882 04F0  
                 l6874 04B7                   l6866 0432                   l6858 0413                   l6794 00E2  
                 l6786 00AD                   l6778 0056                   l6970 0AAB                   l6962 0AA5  
                 l6954 0A9F                   l6946 0A8D                   l6938 0A89                   l5996 15B9  
                 l5988 15A0                   l6892 061B                   l6884 04F7                   l6876 04C5  
                 l6868 049A                   l6796 00E8                   l6788 00B2                   l6980 0AB6  
                 l6972 0AAC                   l6964 0AA8                   l6956 0AA2                   l6948 0A8E  
                 _ADON 00F8                   l5998 15BE                   l6894 0624                   l6886 0544  
                 l6878 04D4                   l6798 010F                   l6990 0B18                   l6982 0AB7  
                 l6974 0AAF                   l6966 0AA9                   l6958 0AA3                   l6888 0609  
                 l6896 062C                   l6992 0B3B                   l6984 0AB8                   l6976 0AB2  
                 l6968 0AAA                   l6898 0638                   l6994 0B43                   l6986 0AB9  
                 l6978 0AB5                   l6996 0B8C                   l6988 0ABB                   _DATA 0078  
                 l6998 0B98                   _CHS0 00FB                   _CHS1 00FC                   _CHS2 00FD  
                 STR_1 10BD                   STR_2 109D                   STR_3 107C                   _T0CS 040D  
                 _T0SE 040C                   u4100 12AD                   u4020 1256                   u4101 12AC  
                 u4110 12BE                   u4030 125D                   u4031 125C                   u4120 12CB  
                 u5000 14A3                   u5001 14A2                   u4050 127A                   u4210 089D  
                 u4130 0826                   u5010 14BB                   u4115 12BA                   u4051 1279  
                 u4211 089C                   u4131 0825                   u4220 08A3                   u4140 083B  
                 u5020 14CD                   u4045 126C                   u4205 088E                   u4070 1298  
                 u4150 0856                   u4310 1227                   u5030 14EF                   u4071 1297  
                 u4151 0855                   u4311 1226                   u5031 14EE                   u5015 14B7  
                 u4160 085D                   u4400 1F8C                   u5120 1547                   u4065 128B  
                 u4161 085C                   u4145 0837                   u4305 1217                   u4401 1F8B  
                 u5121 1546                   u5105 1532                   u5041 14F8                   u5025 14C9  
                 u4090 12A9                   u4330 123C                   u4250 11E1                   u5042 14FF  
                 u4091 12A8                   u4331 123B                   u4315 1223                   u4251 11E0  
                 u5115 153A                   u3700 13A8                   u4180 0879                   u4340 1242  
                 u4260 11EE                   u4420 1102                   u5140 07DB                   u6020 0613  
                 u6100 0C24                   u3701 13A7                   u4085 129D                   u4181 0878  
                 u4325 1230                   u4261 11ED                   u4421 1101                   u5141 07DA  
                 u6021 0612                   u6005 0553                   u6101 0C23                   u3710 13C3  
                 u4190 0881                   u4270 1200                   u4350 1F44                   u4510 11AF  
                 u5070 1516                   u6030 062A                   u6110 0C45                   u3711 13C2  
                 u4191 0880                   u4175 0869                   u4271 11FF                   u4351 1F43  
                 u4431 111A                   u4511 11AE                   u5071 1515                   u5055 1501  
                 u5135 07C8                   u6031 0629                   u6015 05B0                   u6111 0C44  
                 u3800 144F                   u4440 112C                   u4432 111B                   u5080 1520  
                 u6040 0638                   u6120 0C6A                   u3801 144E                   u4441 112B  
                 u4433 1120                   u4505 1196                   u5081 151F                   u5065 1509  
                 u6041 0637                   u6121 0C69                   u3730 1406                   u4290 1214  
                 u4370 1F5A                   u4434 1121                   u4530 11CE                   u4610 1FEC  
                 u6050 0654                   u6130 0CDB                   u3731 1405                   u4291 1213  
                 u4371 1F59                   u4451 1144                   u4531 11CD                   u4515 11AB  
                 u4611 1FEB                   u5091 1529                   u6051 0653                   u6131 0CDA  
                 _PEIE 005E                   u3820 146B                   u3900 17B4                   u4380 1F6E  
                 u4460 1164                   u4452 1145                   u4620 1FF2                   u4540 1F9F  
                 u4700 15A0                   u5092 1530                   u6140 0D0C                   u6060 0B3B  
                 u3821 146A                   u3725 13F1                   u3901 17B3                   u4285 1205  
                 u4381 1F6D                   u4365 1F4A                   u4461 1163                   u4453 114A  
                 u4525 11C0                   u4605 1FE0                   u4541 1F9E                   u6141 0D0B  
                 u6061 0B3A                   _INTE 005C                   u3750 1420                   u3830 16C6  
                 u4454 114B                   u4470 117C                   u4550 1FAC                   u4710 15A6  
                 u6150 0D15                   u6070 0BB9                   _INTF 0059                   u3815 145C  
                 u3751 141F                   u3735 1402                   u3831 16C5                   u4471 117B  
                 u4551 1FAB                   u4711 15A5                   u6151 0D14                   u6071 0BB8  
                 _RBIE 005B                   u3760 1424                   u3920 17D0                   u3840 16E8  
                 u4560 1FB8                   u4800 1602                   u4720 15B0                   u6160 0D1C  
                 u6080 0BDE                   _RBIF 0058                   u3761 1423                   u3745 1413  
                 u3921 17CF                   u3841 16E7                   u4385 1F6A                   u4465 1160  
                 u4561 1FB7                   u4801 1601                   u4721 15AF                   u6161 0D1B  
                 u6081 0BDD                   u3770 142B                   u3930 17D8                   u4490 1192  
                 u4810 160A                   u4730 15B9                   u6090 0BFF                   u3771 142A  
                 u3931 17D7                   u3915 17C0                   u4395 1F7E                   u4491 1191  
                 u4811 1609                   u4731 15B8                   u6091 0BFE                   u3860 176F  
                 u4580 1FCC                   u4900 167A                   u4740 15BE                   u5700 09AD  
                 _RCIF 0065                   u3861 176E                   u4485 1182                   u4581 1FCB  
                 u4901 1679                   u4741 15BD                   u5701 09AC                   u5630 1EBA  
                 u3790 1447                   u3950 17F4                   u4590 1FD8                   u4830 161B  
                 u4750 15D3                   u4670 1583                   u4910 12E0                   u5710 0D30  
                 u5631 1EB9                   u3791 1446                   u3951 17F3                   u3855 173C  
                 u4591 1FD7                   u4575 1FBD                   u4831 161A                   u4751 15D2  
                 u4911 12DF                   u5711 0D2F                   u3880 17A9                   u3960 1EC6  
                 u5640 1F17                   u4840 1623                   u4680 1589                   u4920 12F9  
                 u5720 0D39                   u5800 00D1                   u3785 1437                   u3945 17E5  
                 u3881 17A8                   u3865 176B                   u3961 1EC5                   u5641 1F16  
                 u4841 1622                   u4825 160C                   u4681 1588                   u4921 12F8  
                 u5721 0D38                   u3890 17AD                   u3970 1ED4                   u4770 15E4  
                 u4690 1593                   u4930 1317                   u5730 0E06                   u5810 013A  
                 u3891 17AC                   u3875 1795                   u3971 1ED3                   u4595 1FD4  
                 u4771 15E3                   u4691 1592                   u5731 0E05                   u5811 0139  
                 u4860 1639                   u4780 15EC                   u4940 1329                   u5740 0EA0  
                 u5900 03D9                   u5820 01B2                   u4861 1638                   u4781 15EB  
                 u4765 15D5                   u5741 0E9F                   u5901 03D8                   u5821 01B1  
                 u5805 00CC                   u5670 1F31                   u4870 163F                   u5750 0F6D  
                 u5830 01DC                   u5671 1F30                   u5655 1F1E                   u4871 163E  
                 u4855 1627                   u4935 1313                   u5751 0F6C                   u5831 01DB  
                 u5680 080E                   u4880 1654                   u4960 135D                   u5920 0411  
                 u5840 01F6                   u5760 0023                   u5665 1F25                   u5681 080D  
                 u4881 1653                   u4961 135C                   u4945 1325                   u5921 0410  
                 u5841 01F5                   u5761 0022                   u5690 08C2                   u5930 041D  
                 u5850 023F                   u5770 0052                   u4891 166F                   u4795 15F0  
                 u4955 1348                   u5691 08C1                   u5931 041C                   u5915 03DE  
                 u5851 023E                   u5771 0051                   u4892 1676                   u4980 1377  
                 u5940 042A                   u5860 0248                   u5780 0084                   u4981 1376  
                 u4965 1359                   u5941 0429                   u5925 040D                   u5861 0247  
                 u5845 01F2                   u5781 0083                   u4990 148A                   u5870 0267  
                 u5790 00BD                   u4975 136A                   u4991 1489                   u5871 0266  
                 u5855 023B                   u5791 00BC                   u5960 04A6                   u5880 0276  
                 u5961 04A5                   u5881 0275                   u5970 04C4                   u5890 0298  
                 u5971 04C3                   u5955 0441                   u5891 0297                   u5980 04D4  
                 u5981 04D3                   u5885 0272                   u5990 04F0                   u5975 04C0  
                 u5985 04D0                   _WREN 0C62                   _TXIF 0064                   _ant4 03B8  
                 _ant5 03B9                   _ant6 03BA                   _ant7 03BB                   _flag 03BC  
                 _main 0A70           ___ftpack@arg 0020           ___ftpack@exp 0023                   _temp 00CF  
                 btemp 007E                   start 0012      ___bmul@multiplier 0033           ___ftmul@cntr 0050  
         ___ftmul@sign 0051           ___fttol@exp1 0041           ___fttol@lval 003D                  _ADCS0 00FE  
                _ADCS1 00FF                  _ADCS2 04FE                  ?_main 0070        __end_of___awdiv 1250  
                _EEADR 010D        __end_of___ftadd 16AB        __end_of___awmod 2000                  _CARRY 0018  
      __end_of___ftdiv 1395        __end_of___ftneg 0813        __end_of___lldiv 11DA        __end_of___ftmul 1565  
      ___awdiv@divisor 0027        __end_of___llmod 1F98        __end_of___ftsub 10FC        __end_of___fttol 08B9  
                _PCFG0 04F8                  _PCFG1 04F9                  _PCFG2 04FA                  _PCFG3 04FB  
                i1l730 06CC                  i1l723 06FF                  i1l731 06C0                  i1l740 075E  
                i1l732 06C1                  i1l724 0684                  i1l741 07B5                  i1l733 06F0  
                i1l725 0677                  i1l742 0793                  i1l734 06E4                  i1l726 0679  
                i1l743 07A2                  i1l735 06E5                  i1l727 06A8                  i1l744 07B2  
                i1l736 075F                  i1l728 069C                  i1l745 07B5                  i1l737 072A  
                i1l729 069D                  i1l738 0742                  i1l739 075C        ___awdiv@counter 002C  
                _RCREG 001A                  _RCSTA 0018                  _SPBRG 0099                  _TRISB 0086  
                _TXREG 0019                  _TXSTA 0098           ___lltoft@exp 002D                  _check 007A  
                _flag1 03BD                  _count 007C                  _scale 0D29          ___ftpack@sign 0024  
                _putch 1EB2         __pbitbssCOMMON 03B8                  pclath 000A                  status 0003  
                wtemp0 007E           __end_of_main 0D29                 ??_main 006F          ___fttol@sign1 003C  
 __size_of__tdiv_to_l_ 00E2       ___llmod@dividend 0032                 ?_scale 0052                 _ADRESH 001E  
               _ADRESL 009E                 _EEDATA 010C                 _EECON1 018C                 _EECON2 018D  
     ___awdiv@dividend 0029                 ?_putch 0070       __end_of___ftpack 12CD       __end_of___lltoft 07F6  
               i1l5500 06BE                 i1l5510 06FD                 i1l5502 06CC                 i1l5520 0718  
               i1l5504 06DE                 i1l5512 06FF                 i1l5530 073C                 i1l5522 0720  
               i1l5514 0703                 i1l5506 06E2                 i1l5540 0754                 i1l5532 073F  
               i1l5524 0725                 i1l5516 070D                 i1l5508 06F0                 i1l5550 0793  
               i1l5542 075D                 i1l5526 0730                 i1l5534 0742                 i1l5518 0713  
               i1l5552 0799                 i1l5544 0765                 i1l5536 0748                 i1l5528 0734  
               i1l5480 0657                 i1l5554 07A2                 i1l5546 0783                 i1l5538 074C  
               i1l5490 0684                 i1l5482 065B                 i1l5556 07A9                 i1l5548 078A  
               i1l5492 0696                 i1l5484 066D                 i1l5558 07B2                 i1l5494 069A  
               i1l5486 0671                 i1l5496 06A8                 i1l5488 0672                 i1l5498 06BA  
               _INTEDG 040E                 u340_24 0683                 u341_20 0689                 u341_21 0687  
               u341_22 068A                 u350_20 06BE                 u342_20 0690                 u334_20 065B  
               u350_21 06BD                 u342_21 068E                 u334_21 065A                 u342_22 0691  
               u351_20 06C8                 u343_20 0696                 u335_20 0660                 u351_21 06C4  
               u343_21 0695                 u335_21 065E                 u335_22 0661                 u360_20 0713  
               u344_20 069A                 u336_20 0667                 u360_21 0712                 u344_21 0699  
               u336_21 0665                 u336_22 0668                 u352_24 06CB                 u361_20 0730  
               u353_20 06D1                 u345_20 06A4                 u337_20 066D                 u361_21 072F  
               u353_21 06CF                 u345_21 06A0                 u337_21 066C                 u353_22 06D2  
               u362_20 0748                 u354_20 06D8                 u338_20 0671                 u362_21 0747  
               u354_21 06D6                 u338_21 0670                 u354_22 06D9       __end_of___lwtoft 1EF3  
               u346_24 06A7                 u363_20 0765                 u355_20 06DE                 u347_20 06AD  
               u339_20 0680                 u363_21 0764                 u355_21 06DD                 u347_21 06AB  
               u339_21 067C                 u347_22 06AE                 u356_20 06E2                 u348_20 06B4  
               u356_21 06E1                 u348_21 06B2                 u348_22 06B5                 u364_25 076A  
               u620_27 0750                 u357_20 06EC                 u349_20 06BA                 u357_21 06E8  
               u349_21 06B9                 u365_25 0776                 u366_20 078A                 u366_21 0789  
               u358_24 06EF                 u367_20 0799                 u359_20 0703                 u367_21 0798  
               u359_21 0702                 u368_20 07A9                 u368_21 07A8                 u617_27 06F6  
               u618_27 071C                 u619_27 0738                 _TMR0IE 005D                 _TMR0IF 005A  
               _TRISA0 0428                 _TRISA1 0429                 _TRISB0 0430                 _TRISB1 0431  
               _TRISB2 0432                 _TRISA4 042C                 _TRISB3 0433                 _TRISA5 042D  
               _TRISB6 0436                 _TRISC6 043E                 _TRISC7 043F                 ___bmul 1EBE  
               ___ftge 10FC                 ___wmul 1F0E              ??___awdiv 002B              ??___ftadd 0058  
            ??___awmod 0024              ??___ftdiv 0032              ??___ftneg 0023              ??___lldiv 0028  
            ??___ftmul 0048              ??___llmod 0036              ??___ftsub 0065              ??___fttol 0038  
               _fround 08B9       ___awdiv@quotient 002E        ___awmod@divisor 0020        ___awmod@counter 0025  
               _printf 0015       __end_of_interupt 07C0  ___ftmul@f3_as_product 004D                 saved_w 007E  
           ___ftadd@f1 0052             ___ftadd@f2 0055             ___ftge@ff1 0020             ___ftge@ff2 0023  
           ___ftdiv@f1 002F             ___ftdiv@f2 002C             ___ftdiv@f3 0037             ___ftneg@f1 0020  
  ___bmul@multiplicand 0030             ___ftmul@f1 0042             ___ftmul@f2 0045             ___ftsub@f1 0062  
           ___ftsub@f2 005F             ___fttol@f1 0034         __pcstackCOMMON 0070             ___lltoft@c 0028  
        __end_of_scale 1000          __end_of_putch 1EBE             ___lwtoft@c 0028             __div_to_l_ 16AB  
      __div_to_l_@exp1 0033        __div_to_l_@cntr 0032                ??_scale 0055        __div_to_l_@quot 002E  
              ??_putch 0020             __pbssBANK1 00C0          __div_to_l_@f1 0020          __div_to_l_@f2 0023  
           __pmaintext 0A70                ?___bmul 0030                ?___ftge 0020                ?___wmul 0020  
           __pintentry 0004                ?_fround 005F              ?___ftpack 0020                ?_printf 00A0  
            ?___lltoft 0028              ?___lwtoft 0028                _GO_DONE 00FA              ?_interupt 0070  
           _scale$2939 0057        __size_of___bmul 001A        __size_of___ftge 006E                ___awdiv 11DA  
              ___ftadd 1565                ___awmod 1F98                ___ftdiv 12CD                ___ftneg 0805  
              ___lldiv 116A        __size_of___wmul 002C                ___ftmul 1477                ___llmod 1F3A  
              ___ftsub 10DD                ___fttol 0813                _dataBat 00C9                _dataLuz 00CB  
              _bateria 00C0             ??___ftpack 0025        __size_of_fround 01B7             ??___lltoft 002C  
      __size_of_printf 0642             ??___lwtoft 002B            ?__div_to_l_ 0020                _dpowers 1006  
     ___awmod@dividend 0022   end_of_initialization 1F0A             ??_interupt 0070        ___lldiv@divisor 0020  
      ___lldiv@counter 002D                printf@c 00BF                printf@f 00AE         __tdiv_to_l_@f1 0020  
       __tdiv_to_l_@f2 0023          ??__tdiv_to_l_ 0026             _portaCount 00C8            printf@integ 00B7  
          ___ftdiv@exp 003A    __size_of__div_to_l_ 0155            ___ftmul@exp 004C         __end_of___bmul 1ED8  
       __end_of___ftge 116A         __end_of___wmul 1F3A         __end_of_fround 0A70         __end_of_printf 0657  
  start_initialization 1EF3    __end_of__tdiv_to_l_ 1477        ___llmod@divisor 002E        ___llmod@counter 0037  
             ??___bmul 0031               ??___ftge 0026               ??___wmul 0024               ??_fround 0062  
             ??_printf 00A3             fround@prec 006E      __size_of___ftpack 007D      __size_of___lltoft 0036  
          __pbssCOMMON 0078      __size_of___lwtoft 001B          __pcstackBANK0 0020          __pcstackBANK1 00A0  
            __pnvBANK1 00CF      __size_of_interupt 0169               ?___awdiv 0027               ?___ftadd 0052  
             ?___awmod 0020              __ptext760 0015              __ptext761 10DD              __ptext770 116A  
            __ptext762 0D29              __ptext771 10FC              __ptext763 08B9              __ptext780 1395  
            __ptext772 0805              __ptext764 07C0              __ptext781 1EB2              __ptext773 1F3A  
            __ptext765 1ED8              __ptext782 0657              __ptext774 11DA              __ptext766 1477  
            __ptext783 0000              __ptext775 0813              __ptext767 12CD              __ptext776 1250  
            __ptext768 1565              __ptext777 1F0E              __ptext769 1F98              __ptext778 1EBE  
            __ptext779 16AB               ?___ftdiv 002C               ?___ftneg 0020               ?___lldiv 0020  
             ?___ftmul 0042               ?___llmod 002E               ?___ftsub 005F              __npowers_ 102E  
             ?___fttol 0034              __pstrings 1000            __tdiv_to_l_ 1395           ??__div_to_l_ 0026  
       __size_of_scale 02D7         __size_of_putch 000C      interrupt_function 0004         ___wmul@product 0024  
   __end_of__div_to_l_ 1800              _portaFlag 00C6            __stringbase 1005      ___wmul@multiplier 0020  
           printf@_val 00B3             printf@flag 00AF             printf@fval 00BC             printf@prec 00B1  
     __size_of___awdiv 0076       __size_of___ftadd 0146       __size_of___awmod 0068       __size_of___ftdiv 00C8  
     __size_of___ftneg 000E       __size_of___lldiv 0070       __size_of___ftmul 00EE       __size_of___llmod 005E  
     __size_of___ftsub 001F       __size_of___fttol 00A6               ___ftpack 1250            _fround$2937 006B  
          _fround$2938 0068               ___lltoft 07C0               ___lwtoft 1ED8               _dataTemp 00CD  
             __powers_ 1055          __size_of_main 02B9               _interupt 0657              printf@exp 00BA  
            putch@byte 0020               scale@scl 005A               intlevel1 0000       __tdiv_to_l_@exp1 002F  
     __tdiv_to_l_@cntr 002E       __tdiv_to_l_@quot 002A       ___lldiv@dividend 0024              stringcode 1000  
             printf@ap 00AD           ?__tdiv_to_l_ 0020            _printf$2140 00A9       ___lldiv@quotient 0029  
             stringdir 1000               stringtab 1000  
